(dp0
Vobdurate
p1
(dp2
S'eg_1'
p3
VNo number of pleas and bribes would get him to change his obdurate attitude.
p4
sS'ratings'
p5
(lp6
V134
p7
aV9
p8
aV16
p9
aV13
p10
aV4
p11
aV11
p12
asS'mnemonic_3'
p13
Vdurate -duration. There will be a period(duration) in everyone's life when we will be very obdurate(i.e, stubborn )..
p14
sS'mnemonic_2'
p15
VOB+DU+RATE  realate it as AB(OB) RATE DoUble ho gaya,and the seller was very STUBBORN about that
p16
sS'mnemonic_1'
p17
VOB+DURA(RELATE IT TO WORD DURABILITY)..SO anything which has durability..has the resisting power, and something which can resist, is stubborn.
p18
sS'meaning_1'
p19
Vadjective: unable to be persuaded or moved emotionally; stubborn; unyielding.
p20
ssVmorose
p21
(dp22
S'eg_1'
p23
VAfter Stanley found out he was no longer able to go on vacation with his friends, he sat in his room morosely.
p24
sg5
(lp25
V11
p26
aV14
p27
ag8
aV3
p28
aV7
p29
ag28
asS'mnemonic_3'
p30
VMOROSE..ITS LIKE DIS..nOROSE..SO NO ROSE FOR UR GIRLFRIEND SHE LL BE SAD..
p31
sS'mnemonic_2'
p32
VA guy gave a crushed(MOroda hua(Hindi)) ROSE to girl as a humor she got pissed on this ill humor at the guy and canceled the plan of party(unsociable)
p33
sS'mnemonic_1'
p34
Vin hindi it is like MOR(peacock) RO(weep) SA raha hai-means it is in sorrow and hence brooding ill humoured
p35
sS'meaning_1'
p36
Vadjective: ill-tempered and not inclined to talk; gloomy
p37
ssVthwart
p38
(dp39
S'eg_1'
p40
VI wanted to spend a week in New York this autumn, but the high costs of travel and lodging thwarted my plans.
p41
sg5
(lp42
V45
p43
aV13
p44
aV2
p45
aV11
p46
ag45
aV0
p47
asS'mnemonic_3'
p48
VTH(thousand) + WART(massa).. a person having thousand wart will get furtrated.. and this is block or hinder his beauty
p49
sS'mnemonic_2'
p50
VThwart or Obstruct is to prevent someone from doing something.
p51
sS'mnemonic_1'
p52
Vthis word sounds like THROAT....so if someone squeezes your throat your air passages will get blocked...............thus desires will be prevented.. u also feel frustrated and baffled..
p53
sS'meaning_1'
p54
Vverb: hinder or prevent (the efforts, plans, or desires) of
p55
ssVingenuity
p56
(dp57
S'eg_1'
p58
VDaedalus was famous for his ingenuity; he was able to fashion his son Icarus with a pair of wings, using wax to hold them together.
p59
sg5
(lp60
g45
aV1
p61
ag61
ag47
ag47
ag11
asS'mnemonic_3'
p62
VEn - gine uity --> Jen was part of an engine designing contest in which contestants had to express their creativity
p63
sS'mnemonic_2'
p64
VIngenuity-In(not)-genuity(genuine):Not really genuine...hence using cleverness and smartness with cunning attitude
p65
sS'mnemonic_1'
p66
Vingen.. can be related to an "engine" which is a clever or skillful work
p67
sS'meaning_1'
p68
Vnoun: the power of creative imagination
p69
ssVsnide
p70
(dp71
S'meaning_1'
p72
Vadjective: expressive of contempt; derogatory or mocking in an indirect way
p73
sS'eg_1'
p74
VThe chairman interpreted Taylor's question about promotions as a snide remark, but in all innocence Taylor was trying to figure out the company's process.
p75
sS'mnemonic_2'
p76
VIf the guys are nude in the streets.They will be disrespested.
p77
sS'mnemonic_1'
p78
Vsnide ante maccha
p79
sg5
(lp80
g61
ag61
ag61
ag47
assVdearth
p81
(dp82
S'eg_1'
p83
VI am surprised by the dearth of fast food chains; this is America and I assumed they were on every street.
p84
sg5
(lp85
V49
p86
ag61
aV10
p87
aV5
p88
ag11
ag28
asS'mnemonic_3'
p89
VDearth - deers + earth.. Deers in earth are getting insufficient in number
p90
sS'mnemonic_2'
p91
Vdearth sounds like death. high death rate can result in scarcity of man-power
p92
sS'mnemonic_1'
p93
Vearth is big. de-earth.....(read as dearth) means small...small in quantity..or scarcity
p94
sS'meaning_1'
p95
Vnoun: a lack or shortage
p96
ssVincessant
p97
(dp98
S'eg_1'
p99
VI don't mind small children in brief doses, but I think the incessant exposure that their parents have to them would quickly wear me down.
p100
sg5
(lp101
V33
p102
ag61
ag11
ag61
ag61
ag47
asS'mnemonic_3'
p103
Vin(not) + cease=continuous
p104
sS'mnemonic_2'
p105
Vthe meeting is IN SESSION and it may never end.
p106
sS'mnemonic_1'
p107
VIN(MEANS not)+cessa(sounds like CEASE (MEANS TO STOP)...something which does not stop , and continues forever, hence UNINTERRUPTED AND UNCEASING.
p108
sS'meaning_1'
p109
Vadjective: uninterrupted in time and indefinitely long continuing
p110
ssVrenege
p111
(dp112
S'eg_1'
p113
VWe will no longer work with that vendor since it has reneged on nearly every agreement.
p114
sg5
(lp115
V24
p116
aV30
p117
aV17
p118
aV12
p119
aV10
p120
ag47
asS'mnemonic_3'
p121
VRENEGADE is a traitor of a country.. RENEGE is a traitor of his own words..
p122
sS'mnemonic_2'
p123
Vrenege seems lke rehne de.. so rehne de promise mat kar coz i the end you will renege it or sumthng
p124
sS'mnemonic_1'
p125
Vrenege : made of re+nege nege is a root for negative, go negative on ones own said words, which is the meaning.
p126
sS'meaning_1'
p127
Vverb: fail to fulfill a promise or obligation
p128
ssVornate
p129
(dp130
S'meaning_1'
p131
Vadjective: marked by elaborate rhetoric and elaborated with decorative details
p132
sS'eg_1'
p133
VThe ornate Victorian and Edwardian homes spread throughout San Francisco are my favorite part of the city.
p134
sS'mnemonic_1'
p135
Vsounds like ORNAmenTe ..when many ornaments are used, the thing is ornated.
p136
sg5
(lp137
g28
ag47
assVpatronize
p138
(dp139
S'eg_1'
p140
VShe says she genuinely wanted to help me, but instead she patronized me, constantly pointing out how I was inferior to her.
p141
sg5
(lp142
V11
p143
ag47
ag45
ag45
asS'mnemonic_2'
p144
VIf u remember Patronus--from latin it will give u a lot of words like patriarch (Patri+ arch: ruled by father or eldest male) well you father is giving u regular pat (encouragement)
p145
sS'mnemonic_1'
p146
VPATRO(father)+NIZE(nice)....we get NICE SUPPORT from our FATHER
p147
sS'note'
p148
VThis word has other definitions but this is the most important one to study
p149
sS'meaning_1'
p150
Vverb: treat condescendingly
p151
ssVstolid
p152
(dp153
S'eg_1'
p154
VElephants may appear stolid to casual observers, but they actually have passionate emotional lives.
p155
sg5
(lp156
V64
p157
ag11
aV8
p158
ag29
ag45
ag11
asS'mnemonic_3'
p159
Vwhen you are stolid your face is solid
p160
sS'mnemonic_2'
p161
VSTOL(sounds like stool)..and a stool is a nonliving thing without any emotion,simillarly a STOLID is like stool without any emotion,always dull and boring.
p162
sS'mnemonic_1'
p163
Vstone like. It becomes 'T' SOLID. So someone very SOLID against 'T'(ears) or emo'T'ions.
p164
sS'meaning_1'
p165
Vadjective: having or revealing little emotion or sensibility; not easily aroused or excited
p166
ssVendemic
p167
(dp168
S'eg_1'
p169
VIrish cuisine makes great use of potatoes, but ironically, the potato is not endemic to Ireland.
p170
sg5
(lp171
V37
p172
ag47
aV6
p173
ag45
ag28
ag29
asS'mnemonic_3'
p174
Vend of(demic)democracy-this characteristic,nw a days,is confined to a very little no of countries..
p175
sS'mnemonic_2'
p176
Vepidemic is something that is confined to vast area and endemic is confined to small area
p177
sS'mnemonic_1'
p178
Vsimple think of epidemic as an epidemic desease that spreads a vast area and endemic disease as a disease that spreads only a confined area
p179
sS'meaning_1'
p180
Vadjective: native; originating where it is found
p181
ssVavid
p182
(dp183
S'eg_1'
p184
VMartin is an avid birdwatcher, often taking long hikes into remote mountains to see some rare eagle.
p185
sg5
(lp186
V51
p187
ag88
aV17
p188
ag28
ag29
ag28
asS'mnemonic_3'
p189
Vspell it backwards and it becomes DIVA, so one cn remember, diva (a young actress, young woman) is always avid
p190
sS'mnemonic_2'
p191
VdrAVID (Rahul dravid) is greedy for runs
p192
sS'mnemonic_1'
p193
Va person is always eager to be in  avid(a video)
p194
sS'meaning_1'
p195
Vadjective: marked by active interest and enthusiasm
p196
ssVdiscriminate
p197
(dp198
S'eg_1'
p199
VSarah couldn't discriminate between a good wine and a bad wine, so she avoided wine tastings.
p200
sg5
(lp201
g28
ag47
ag47
ag61
ag47
ag61
asS'mnemonic_3'
p202
Vdis(apart)+criminal
p203
sS'mnemonic_2'
p204
Vdis(apart)+criminal
p205
sS'mnemonic_1'
p206
V"discri" + "minate" = "describe in one minute" when someone can describe something in one minute he can distinguish that.
p207
sg148
VThis word has other definitions but this is the most important one to study
p208
sS'meaning_1'
p209
Vverb: recognize or perceive the difference
p210
ssVmuted
p211
(dp212
S'meaning_1'
p213
Vadjective: softened, subdued
p214
sS'eg_1'
p215
VHelen preferred muted earth colors, such as green and brown, to the bright pinks and red her sister liked.
p216
sg148
VThis word has other definitions but this is the most important one to study
p217
sg5
(lp218
ssVappreciable
p219
(dp220
S'meaning_1'
p221
Vadjective: large enough to be noticed (usu. refers to an amount)
p222
sS'eg_1'
p223
VThere is an appreciable difference between those who say they can get the job done and those who actually get the job done.
p224
sS'mnemonic_1'
p225
VAPPRECIABLE sounds like PERCEPTIBLE.
p226
sg5
(lp227
g61
ag47
assVjocular
p228
(dp229
S'meaning_1'
p230
Vadjective: characterized by jokes and good humor
p231
sS'eg_1'
p232
VMy uncle was always in a jocular mood at family gatherings, messing up people's hair and telling knock-knock jokes to anyone who would listen.
p233
sS'mnemonic_2'
p234
VJoke(joc) + cooler (cular). Imagine a cooler which throws out jokes. (jocular = said or done as a joke)
p235
sS'mnemonic_1'
p236
Vjoker
p237
sg5
(lp238
g61
ag45
ag61
ag47
assVmalleable
p239
(dp240
S'eg_1'
p241
VThe clay became malleable and easy to work with after a little water was added.
p242
sg5
(lp243
g158
ag47
ag29
ag45
ag88
ag47
asS'eg_2'
p244
VMy little brother is so malleable that I can convince him to sneak cookies from the cupboard for me.
p245
sS'mnemonic_3'
p246
Vmalleability is the capability of stretching to a wire. Ductility is the capability of pressing to a sheet.. Both are properties studied in material science
p247
sS'mnemonic_2'
p248
VMany women believe they can mold their MALE (malle) partners into ABLE-bodied husbands.
p249
sS'mnemonic_1'
p250
Vrelate with meltable; so possible to reshape
p251
sS'meaning_1'
p252
Vadjective: capable of being shaped or bent or drawn out
p253
sS'meaning_2'
p254
Vadjective: easily influenced
p255
ssVfete
p256
(dp257
S'eg_1'
p258
VAfter World War II, war heroes were feted at first but quickly forgotten.
p259
sg5
(lp260
g28
ag47
ag45
ag11
ag61
ag61
asS'mnemonic_3'
p261
VIn life he has achieved good FEATS(FETES)(honors) ...
p262
sS'mnemonic_2'
p263
VI bought a new ford FIESTA (sounds like fete) so I am celebrating
p264
sS'mnemonic_1'
p265
Vsounds as feat(fete) which means accomplishment....sowe can say...after a glorious feat we do  fete
p266
sS'meaning_1'
p267
Vverb: to celebrate a person
p268
ssVflounder
p269
(dp270
S'eg_1'
p271
VSylvia has excelled at advanced calculus, but ironically, when she has to deal with taxes, she flounders.
p272
sg5
(lp273
V24
p274
ag61
aV11
p275
ag47
ag158
ag47
asS'mnemonic_3'
p276
VWhen you catch a flounder (fish), he struggles and thrashes around to try to escape.
p277
sS'mnemonic_2'
p278
VSounds similar to founder.. a startup founder has to face lots of difficulties in the beginning.
p279
sS'mnemonic_1'
p280
VFly+under water is accompanied with lots of struggle and confusion
p281
sS'meaning_1'
p282
Vverb: behave awkwardly; have difficulties
p283
ssVdisheartened
p284
(dp285
S'meaning_1'
p286
Vadjective: made less hopeful or enthusiastic
p287
sS'eg_1'
p288
VAfter the visiting team scored nine times, the home team's fans were disheartened, some leaving the game early.
p289
sg5
(lp290
ssVmoot
p291
(dp292
S'meaning_1'
p293
Vadjective: open to argument or debate; undecidable in a meaningless or irrelevant way
p294
sS'eg_1'
p295
VSince the Board just terminated Steve as the CEO, what the finance committee might have thought of his proposed marketing plan for next year is now a moot point.
p296
sS'mnemonic_1'
p297
VJhoot moot. Law students were arguing on a jhoot moot ka topic.
p298
sg5
(lp299
g11
ag47
assVboon
p300
(dp301
S'eg_1'
p302
VModern technology has been a boon to the travel industry.
p303
sg5
(lp304
g173
ag47
ag45
ag45
ag45
ag47
asS'eg_2'
p305
VHe was a boon companion to many, and will be sadly missed.
p306
sS'mnemonic_3'
p307
Vboon ~ moon...both are blessing
p308
sS'mnemonic_2'
p309
VRemember David BOON who was blessing for cricket
p310
sS'mnemonic_1'
p311
Vboon - bonus - something helpful
p312
sS'meaning_1'
p313
Vnoun: a desirable state
p314
sS'meaning_2'
p315
Vadjective: very close and convivial
p316
ssVfledgling
p317
(dp318
S'eg_1'
p319
VMurray has years of experience in family practice, but he is just a fledgling in surgery.
p320
sg5
(lp321
V18
p322
aV10
p323
aV17
p324
ag173
ag173
ag47
asS'mnemonic_3'
p325
Vfully fledged = mature or experienced..                           but                                               fledgling means the one who isn't matured , i.e. is a neophyte(newbie = noob )
p326
sS'mnemonic_2'
p327
Vrhymes with duckling.. a young duck thus referring to inexperience.
p328
sS'mnemonic_1'
p329
Vsounds similar to sledging in cricket.... normally inexperience young players if unable to get wickets than do sledging... hope this ll help
p330
sS'meaning_1'
p331
Vadjective: young and inexperienced\u000anoun: any new participant in some activity
p332
ssVmalady
p333
(dp334
S'eg_1'
p335
VThe town was struck by a malady throughout the winter that left most people sick in bed for two weeks.
p336
sg5
(lp337
V39
p338
ag11
ag88
ag88
ag11
ag28
asS'mnemonic_3'
p339
Vsounds like mal +lady...........mal(means not in good state or in bad condition)+lady...........means.a lady who  is ill
p340
sS'mnemonic_2'
p341
VMalaria is a type of malady
p342
sS'mnemonic_1'
p343
Vmala D is a pill ( contraceptive ):: and you take pills when you become ill.
p344
sS'meaning_1'
p345
Vnoun: a disease or sickness
p346
ssVautonomously
p347
(dp348
S'meaning_1'
p349
Vadverb: Acting independently; self-governing (of a country)
p350
sS'eg_1'
p351
VMany of the factory workers are worried about being replaced by machines and computers that will work completely autonomously.
p352
sg5
(lp353
ssVadvocate
p354
(dp355
S'eg_1'
p356
VWhile the senator privately approved of gay marriage, he was unwilling to advocate for the cause in a public venue.
p357
sg5
(lp358
g28
ag45
ag61
ag45
ag61
ag47
asS'eg_2'
p359
VMartin Luther King Jr. was a tireless advocate for the rights of African-Americans in the United States. 
p360
sS'mnemonic_3'
p361
VThink of avocado.. Avocado is known to be the most healthy food on earth so we would recommend or plead for it
p362
sS'mnemonic_2'
p363
Vadvocate: add+ur VOICE ...support
p364
sS'mnemonic_1'
p365
Vadvocate...advocate usually "urges"or "pleads" judge to give in his favour
p366
sg148
VThis word has other definitions, but these are the most important ones to study
p367
sS'meaning_1'
p368
Vverb: speak, plead, or argue in favor of
p369
sS'meaning_2'
p370
Vnoun: a person who pleads for a cause or propounds an idea
p371
ssVtransitory
p372
(dp373
S'eg_1'
p374
VIf we lived forever and life was not transitory, do you think we would appreciate life less or more?
p375
sg5
(lp376
g173
ag45
ag61
ag61
ag47
ag45
asS'mnemonic_3'
p377
VTRANSITORY and MOMENTARY have the same sound and both words mean... briefly, a fleeting (passing) moment.
p378
sS'mnemonic_2'
p379
VOr, transitory=transition will occur(it has tendency for it)..so, it'll stay in the previous state for short period..previous state is ephemeral..
p380
sS'mnemonic_1'
p381
VTransistors take a very short time to turn from on to off i.e acting like a switch
p382
sS'meaning_1'
p383
Vadjective: lasting a very short time
p384
ssVdeter
p385
(dp386
S'eg_1'
p387
VHis mother tried to deter him from joining the army, but he was too intoxicated with the idea of war to listen.
p388
sg5
(lp389
g29
ag45
ag28
ag61
ag61
ag47
asS'eg_2'
p390
VThe government's primary job should involve deterring paths to war, not finding ways to start them.
p391
sS'mnemonic_3'
p392
Vsame root as terror
p393
sS'mnemonic_2'
p394
VDETERgent prevents dirt
p395
sS'mnemonic_1'
p396
VDExTER (cartoon character) used to PREVENT her sister from coming in his secret laboratory
p397
sS'meaning_1'
p398
Vverb: turn away from by persuasion
p399
sS'meaning_2'
p400
Vverb: try to prevent; show opposition to
p401
ssVarchaic
p402
(dp403
S'eg_1'
p404
VHoping to sound intelligent, Mary spoke in archaic English that was right out of Jane Austen's Pride and Prejudice--needless to say, she didn't have many friends.
p405
sg5
(lp406
V25
p407
ag47
ag11
ag61
ag11
ag47
asS'mnemonic_3'
p408
VRemember with Archive. As we keep very old thing in archive- Archaic is related something very old.
p409
sS'mnemonic_2'
p410
VThe word resembles like archies ...the old archies card are kept with us.
p411
sS'mnemonic_1'
p412
VArchealogy - study of old things.. Archaic - The old things on which we study..
p413
sS'meaning_1'
p414
Vadjective: so old as to appear to belong to a different period
p415
ssVpithy
p416
(dp417
S'eg_1'
p418
VI enjoy reading the Daodejing for its pithy and insightful prose; it always gives me something to think about.
p419
sg5
(lp420
V44
p421
ag61
ag11
ag29
ag45
ag28
asS'mnemonic_3'
p422
VPithy saying is concise and meaningful saying
p423
sS'mnemonic_2'
p424
Vpithy : pithaj+y=pithaji,he should be very precise and brief
p425
sS'mnemonic_1'
p426
Vpi-thy: the math symbol pi is concise and has great meaning
p427
sS'meaning_1'
p428
Vadjective: concise and full of meaning
p429
ssVimpede
p430
(dp431
S'eg_1'
p432
VSince the police sergeant had to train the pair of new hires, progress in his own case was impeded.
p433
sg5
(lp434
V40
p435
ag45
aV29
p436
ag158
aV10
p437
ag61
asS'mnemonic_3'
p438
Vrelate it with stampede.in a stampede there is great obstruction
p439
sS'mnemonic_2'
p440
VPed (Tree in hindi)on the way.....
p441
sS'mnemonic_1'
p442
Vimpede from impedance meaning resistance
p443
sS'meaning_1'
p444
Vverb: be a hindrance or obstacle to
p445
ssVrespite
p446
(dp447
S'eg_1'
p448
VEvery afternoon, the small company has a respite in which workers play foosball or board games.
p449
sg5
(lp450
V36
p451
aV17
p452
aV17
p453
ag45
ag29
ag11
asS'mnemonic_3'
p454
VAfter taking the GRE, take a RESPITE and drink a SPRITE.
p455
sS'mnemonic_2'
p456
Vrest a bit
p457
sS'mnemonic_1'
p458
VTarik pe Tarik (Sunny Deol) Respite pe Respite
p459
sS'meaning_1'
p460
Vnoun: a pause from doing something (as work)
p461
ssVrobust
p462
(dp463
S'meaning_1'
p464
Vadjective: sturdy and strong in form, constitution, or construction
p465
sS'eg_1'
p466
VChris preferred bland and mild beers, but Bhavin preferred a beer with more robust flavor.
p467
sS'mnemonic_2'
p468
Vbust of a gal is strong..its soft actually but think opp guys..!!...no personal offense..the more vulgar the better yu grasp..!!...my way !! :)
p469
sS'mnemonic_1'
p470
Vlike a robot  >>sturdy & strong. POWERFUL, MUSCULAR, VIGOROUS
p471
sg5
(lp472
g173
ag47
ag88
ag45
assVinclement
p473
(dp474
S'eg_1'
p475
VAfter a week of inclement weather, we finally are able to go outside and enjoy the sun.
p476
sg5
(lp477
V26
p478
ag8
aV13
p479
ag61
ag158
ag47
asS'eg_2'
p480
VMarcus Aurelius, though a fair man, was inclement to Christians during his reign, persecuting them violently.
p481
sS'mnemonic_3'
p482
VINCLEMENT = IN(negative) + CLIMATE = Bad Climate/Weather
p483
sS'mnemonic_2'
p484
Vbosses are always incleament when theres time of increament
p485
sS'mnemonic_1'
p486
Vclemen(t)cy means kind, while inclement means unkind, rude,(for a person) stormy(for weather).
p487
sS'meaning_1'
p488
Vadjective: (of weather) unpleasant, stormy
p489
sS'meaning_2'
p490
Vadjective: used of persons or behavior; showing no mercy
p491
ssVproponent
p492
(dp493
S'eg_1'
p494
VIronically, the leading proponent of Flat-Earth Theory flies all over the world in an effort to win more adherents.
p495
sg5
(lp496
V37
p497
ag11
ag88
ag45
ag61
aV11
p498
asS'mnemonic_3'
p499
Vremove this
p500
sS'mnemonic_2'
p501
VPePsOdENT is proponent for me,it really fights from all teeth problem.
p502
sS'mnemonic_1'
p503
Vperson opposite to opponent
p504
sS'meaning_1'
p505
Vnoun: a person who pleads for a cause or propounds an idea
p506
ssVresolve
p507
(dp508
S'meaning_1'
p509
Vverb: reach a conclusion after a discussion or deliberation
p510
sS'eg_1'
p511
VAfter much thought, Ted resolved not to travel abroad this summer because he didn't have much money in his bank account.
p512
sg148
VThis word has other definitions but this is the most important one to study
p513
sS'mnemonic_1'
p514
VIf u r SOLVING problems in a chapter AGAIN & AGAIN. then u have determination to do that chapter in exams
p515
sg5
(lp516
g45
ag45
assVelusive
p517
(dp518
S'eg_1'
p519
VMany first time skydivers say that describing the act of falling from the sky is elusive.
p520
sg5
(lp521
V26
p522
ag45
aV13
p523
ag28
ag11
aV20
p524
asS'mnemonic_3'
p525
VLusi(lucy)-lets assume lucy as a gal.lets assume lucy is always not frank.since she is lucy(loosy), she is hard to understand as her talks(speech) is loosy, it is hard to grasp.
p526
sS'mnemonic_2'
p527
Velusive is like exclusive,,, and exclusive content is hard to get!
p528
sS'mnemonic_1'
p529
Villusive things are always difficult to understand
p530
sS'meaning_1'
p531
Vadjective: difficult to capture or difficult to remember
p532
ssVdisenfranchise
p533
(dp534
S'eg_1'
p535
VThe U.S. Constitution disenfranchised women until 1920 when they were given the right to vote.
p536
sg5
(lp537
V14
p538
ag47
ag47
ag45
ag47
ag47
asS'mnemonic_3'
p539
Vdis + franchise >>> franchise's of IPL team have right to vote for vote for a player in bidding auction.. dis(-ve) means to take away this right.. means to deprive civil rights..
p540
sS'mnemonic_2'
p541
VIPL franchisee ne to players ke civil right bhi chhin liye hain
p542
sS'mnemonic_1'
p543
V'Franchise' means right to freedom .. disFranchise means restricted freedom.. deprived of voting!
p544
sS'meaning_1'
p545
Vverb: deprive of voting rights
p546
ssVguffaw
p547
(dp548
S'eg_1'
p549
VWhenever the jester fell to the ground in mock pain, the king guffawed, exposing his yellow, fang-like teeth.
p550
sg5
(lp551
V34
p552
ag88
aV13
p553
ag29
ag11
ag61
asS'mnemonic_3'
p554
VRemember Disney's character GOOFY & his laugh.
p555
sS'mnemonic_2'
p556
Vrhymes with gappa or gappe(hindi)...jab log gappe marte hein, this is  when there is boisterous laughter all around ....I know its a way too dumb....
p557
sS'mnemonic_1'
p558
Vremember gufa in hindi. If you laugh a bit in gufa, it sounds like boisterous laugh.
p559
sS'meaning_1'
p560
Vverb: laugh boisterously
p561
ssVapprehension
p562
(dp563
S'meaning_1'
p564
Vnoun: fearful expectation
p565
sS'eg_1'
p566
VTest day can be one of pure apprehension, as many students worry about their test scores.
p567
sg5
(lp568
ssVplodding
p569
(dp570
S'meaning_1'
p571
Vadjective: (of movement) slow and laborious
p572
sS'eg_1'
p573
VCharlie may seem to run at a plodding pace, but he is an ultramarathoner, meaning he runs distances of up to 100 miles, and can run for ten hours at a stretch.
p574
sS'mnemonic_2'
p575
Vit sounds like applaud ; implies to come & collect prize , we walk plodding while applauding
p576
sS'mnemonic_1'
p577
Vthink of PLOTTING which moves slowly
p578
sg5
(lp579
g45
ag47
ag47
ag47
assVquandary
p580
(dp581
S'eg_1'
p582
VSteve certainly is in a quandary: if he doesn't call Elaine, she will blame him for everything, but if he does call her, the evidence of where he currently is could cost him his job.
p583
sg5
(lp584
V45
p585
ag29
aV27
p586
aV10
p587
aV16
p588
ag11
asS'mnemonic_3'
p589
VI was in dilemma whether I give my cloths to laundry or wash them at home
p590
sS'mnemonic_2'
p591
Vthis word quandary sounds like wandering so if you are in a DILEMMA you wander all around the streets.....
p592
sS'mnemonic_1'
p593
Vquantary relates to quantum physics,which is so complex that it leaves you in DILEMMA about the UNCERTAINITY of photon
p594
sS'meaning_1'
p595
Vnoun: state of uncertainty or perplexity especially as requiring a choice between equally unfavorable options
p596
ssVimpermeable
p597
(dp598
S'meaning_1'
p599
Vadjective: does not allow fluids to pass through
p600
sS'eg_1'
p601
VThe sand bags placed on the river formed an impermeable barrier, protecting the town from flooding.
p602
sS'mnemonic_2'
p603
VPermeable membrane allows fluid to pass thru .... so 'impermeable' that does not allow through ...
p604
sS'mnemonic_1'
p605
Vim(no)+permeable(permission)that means no permission for seepage.
p606
sg5
(lp607
g88
ag47
ag61
ag47
assVraffish
p608
(dp609
S'meaning_1'
p610
Vadjective: marked by a carefree unconventionality or disreputableness
p611
sS'eg_1'
p612
VThe men found him raffish, but the women adored his smart clothes and casual attitude.
p613
sS'mnemonic_2'
p614
VRAFFISH = ROUGHISH. YOUNGSTERS THINK IT IS STYLISH OTHERS THINK IT AS VULGAR. SO VULGAR/STYLISH
p615
sS'mnemonic_1'
p616
Vsounds like "rough"ish so somthing which is rough in behaviour, that reminds of youngsters and they are carefree
p617
sg5
(lp618
g29
ag47
ag47
ag47
assVconsummate
p619
(dp620
S'eg_1'
p621
VTyler was the consummate musician: he was able to play the guitar, harmonica, and the drum at the same time.
p622
sg5
(lp623
V39
p624
ag47
aV32
p625
ag173
aV17
p626
aV10
p627
asS'eg_2'
p628
VThe restoration of the ancient church was only consummated after a twenty years of labor.
p629
sS'mnemonic_3'
p630
VOnly consume things which are complete.
p631
sS'mnemonic_2'
p632
Vcon+summit(....the highest point of something)....and now imagine a person who has reached the highest point of perfection,is truly a complete man.
p633
sS'mnemonic_1'
p634
Vif you want to consume your mate(wife), you have to be complete 'a complete man- raymonds :P'
p635
sg148
VThis word has other definitions, but these are the most important ones to study
p636
sS'meaning_1'
p637
Vadjective: having or revealing supreme mastery or skill
p638
sS'meaning_2'
p639
Vverb: to make perfect and complete in every respect
p640
ssVentice
p641
(dp642
S'eg_1'
p643
VHarold enticed his wife, Maude, to go on a vacation to Hawaii, with promises of luaus on the beach and all-you-can-eat seafood buffets.
p644
sg5
(lp645
V31
p646
ag11
ag173
ag61
ag61
ag28
asS'mnemonic_3'
p647
VENforce To task..
p648
sS'mnemonic_2'
p649
VRhymes with MICE.A bait is used to entice a MICE
p650
sS'mnemonic_1'
p651
VEveryone got so  ATTRACTED to the ENTICEr bike that they were TEMPTED to buy it..
p652
sS'meaning_1'
p653
Vverb: get someone to do something through (often false or exaggerated) promises
p654
ssVmeander
p655
(dp656
S'eg_1'
p657
VA casual observer might have thought that Peter was meandering through the city, but that day he was actually seeking out those places where he and his long lost love had once visited.
p658
sg5
(lp659
V48
p660
ag47
ag11
aV15
p661
ag61
ag173
asS'mnemonic_3'
p662
Vmeander...it sounds like Menderes a River in turkey....and a river changes its direction according to the wind direction....or turn its course along the winding path....
p663
sS'mnemonic_2'
p664
Vwhen pronounced GIVE THE sounds OF meAN+wANDER.....SO A MEAN PERSON always WANDER aimlessly.
p665
sS'mnemonic_1'
p666
VPronounce it like 'wander'; they are synonymous.
p667
sS'meaning_1'
p668
Vverb: to wander aimlessly
p669
ssVascendancy
p670
(dp671
S'eg_1'
p672
VThe ascendancy of the Carlsbad water polo team is clear\u2014they have a decade of championships behind them.
p673
sg5
(lp674
V22
p675
ag61
aV10
p676
ag8
ag28
ag88
asS'mnemonic_3'
p677
Vmodification of above one .. Husband having ascendancy over wife that is controlling her and makin dance her at his tune
p678
sS'mnemonic_2'
p679
Vascendancy... wife has ascendancy over her husband...she make him dance to her tune !
p680
sS'mnemonic_1'
p681
VAscend means to rise... as u rise, u always gain power...& den u dance :p
p682
sS'meaning_1'
p683
Vnoun: the state that exists when one person or group has power over another
p684
ssVdegrade
p685
(dp686
S'meaning_1'
p687
Vverb: reduce in worth or character, usually verbally
p688
sS'eg_1'
p689
VJesse had mockingly pointed out all of Nancy's faults in front of their friends, publicly degrading the poor girl.
p690
sS'mnemonic_1'
p691
Vde(belittle)+grade
p692
sg5
(lp693
g47
ag47
ass.