(dp0
Vsquander
p1
(dp2
S'eg_1'
p3
VFearing his money would be squandered by his family, he gave all of it to charity when he died.
p4
sS'ratings'
p5
(lp6
V52
p7
aV5
p8
aV4
p9
aV17
p10
aV0
p11
aV6
p12
asS'mnemonic_3'
p13
VSQUAttER oN Dope. If you exchange 2 leTTers in SQUAttERs with oN Dope, you can explain how they became that way: they waste their money by spending irresponsibly on dope. (no offence intended to responsible smokers!)
p14
sS'mnemonic_2'
p15
Vsquan = sucking quantity i.e., spending too much quantity.
p16
sS'mnemonic_1'
p17
VSQUANDER rhymes with WANDER....so if you keep wandering, you are ultimately wasting time in life. gud
p18
sS'meaning_1'
p19
Vverb: spend thoughtlessly; waste time, money, or an opportunity
p20
ssVdiscord
p21
(dp22
S'eg_1'
p23
VDespite all their talented players, the team was filled with discord--some players refused to talk to others--and lost most of their games.
p24
sg5
(lp25
V13
p26
ag11
ag8
aV1
p27
ag27
ag27
asS'mnemonic_3'
p28
VWhen you donot have a healthy communication with people, it may give rise to conflicts and cause a lack of harmony. Similarly for musical cords, when there is a discord, there is dissonance in the sound.
p29
sS'mnemonic_2'
p30
Vwhen ur not strucking the CHORD together,,it resultz in disharmony (of an instrument)
p31
sS'mnemonic_1'
p32
VDIS(not)+ACCORD(agreement)...accord means agreement...hence discord means disagreement....
p33
sS'meaning_1'
p34
Vnoun: lack of agreement or harmony
p35
ssVmaxim
p36
(dp37
S'eg_1'
p38
VJohnson initially suggests that the secret to business can be summarized in a single maxim but then requires a 300-page book to explain exactly what he means.
p39
sg5
(lp40
V12
p41
ag11
aV2
p42
aV3
p43
ag42
ag11
asS'mnemonic_3'
p44
VMaxim is a famous magazine. Its a maxim that every young boy reads MAXIM!
p45
sS'mnemonic_2'
p46
Vmaxim = maximum + saying...
p47
sS'mnemonic_1'
p48
VMaxim= for maximum you will say max.. it is a short rule of saying maximum..
p49
sS'meaning_1'
p50
Vnoun: a short saying expressing a general truth
p51
ssVelude
p52
(dp53
S'meaning_1'
p54
Vverb: escape understanding
p55
sS'eg_1'
p56
VWhile some physics concepts might elude newbies, with a little grit and a good teacher, almost anyone can develop a deep understanding of the subject.
p57
sg5
(lp58
ssVbrusquely
p59
(dp60
S'meaning_1'
p61
Vadverb: in a blunt, direct manner
p62
sS'eg_1'
p63
VNot one for social pleasantries, the Chief of Staff would brusquely ask his subordinates anything he wanted, even coffee.
p64
sS'mnemonic_1'
p65
VBlunt in speech can bruise quickly the other person ego.
p66
sg5
(lp67
g11
ag11
assVtravail
p68
(dp69
S'eg_1'
p70
VWhile they experienced nothing but travails in refinishing the kitchen, they completed the master bedroom in less than a weekend.
p71
sg5
(lp72
V23
p73
ag9
ag12
ag27
ag43
ag27
asS'mnemonic_3'
p74
Vtravail is work in french hence hard work
p75
sS'mnemonic_2'
p76
VTravel+rail....when you travel a long distance in a railway full of people you suffer from travail....
p77
sS'mnemonic_1'
p78
VTRAVel - AIL...Imagine someone ailing after a long travel...repenting over the large physical and mental pain and tiredness after the travel
p79
sS'meaning_1'
p80
Vnoun: use of physical or mental energy; hard work; agony or anguish
p81
ssVleery
p82
(dp83
S'eg_1'
p84
VWithout checking his references and talking to previous employers, I am leery of hiring the candidate.
p85
sg5
(lp86
V40
p87
aV16
p88
aV23
p89
aV17
p90
aV13
p91
ag9
asS'mnemonic_3'
p92
Vleery-compare with jerry tom is always cautious and suspicious  that jerry is around
p93
sS'mnemonic_2'
p94
Vrhymes with Wary . so when u r leery u r wary .
p95
sS'mnemonic_1'
p96
Vleery >when u are travelling in train and someone asks u to eat something then they say "leh ri" then u get suspicious at his offering..
p97
sS'meaning_1'
p98
Vadjective: openly distrustful and unwilling to confide
p99
ssVimpending
p100
(dp101
S'eg_1'
p102
VThe impending doom of our world has been discussed and debated for 2000 years\u2014maybe even longer.
p103
sg5
(lp104
V12
p105
ag43
aV8
p106
ag27
ag27
ag11
asS'mnemonic_3'
p107
Vim-pending... if i m not pending my work,then my promotion is "approching" towards me,rite?
p108
sS'mnemonic_2'
p109
VIm - not, pending - waiting for.  Impending - Not waiting for; about to happen.
p110
sS'mnemonic_1'
p111
VImpending: Im+Pending- nothing can be left pending when the deadline is near.
p112
sS'meaning_1'
p113
Vadjective: close in time; about to occur
p114
ssVpresumption
p115
(dp116
S'meaning_1'
p117
Vnoun: an assumption that is taken for granted
p118
sS'eg_1'
p119
VWhen Mr. Baker found out the family car was gone, he acted under the presumption that his rebellious son had taken the car, calling his son's phone and yelling at him; only later did Mr. Baker realize that Mrs. Baker had simply gone out to get her nails done.
p120
sS'meaning_2'
p121
Vnoun: audacious (even arrogant) behavior that you have no right to
p122
sS'eg_2'
p123
VThe new neighbor quickly gained a reputation for her presumption; she had invited herself to several neighbors' homes, often stopping over at inopportune times and asking for a drink.
p124
sg5
(lp125
ssVpastoral
p126
(dp127
S'eg_1'
p128
VThose who imagine America's countryside as a pastoral region are often disappointed to learn that much of rural U.S. is filled with cornfields extending as far as the eye can see.
p129
sg5
(lp130
V21
p131
ag43
ag106
ag42
ag27
ag11
asS'mnemonic_3'
p132
Vpastoral = past + oral; At past oral exam has been taken by school teachers at villages.
p133
sS'mnemonic_2'
p134
VPASTURE+ALL - Pastures are found in rural areas!
p135
sS'mnemonic_1'
p136
Vpast(history)+oral---We believe that in the past people were of rural kind and we only study them orally in books..
p137
sS'meaning_1'
p138
Vadjective: relating to the countryside in a pleasant sense
p139
ssVquip
p140
(dp141
S'eg_1'
p142
VIn one of the most famous quips about classical music, Mark Twain said: "Wagner's music is better than it sounds."
p143
sg5
(lp144
V19
p145
aV14
p146
ag12
ag43
ag8
ag9
asS'eg_2'
p147
VWhen an old English teacher criticized Churchill for ending a sentence with a preposition, he quipped, "This is the kind of criticism up with which we will not put!"
p148
sS'mnemonic_3'
p149
Vwhip for a quip..whip your friend for quipping you
p150
sS'mnemonic_2'
p151
Vqu+tip---why should i give tip for such cheap service?
p152
sS'mnemonic_1'
p153
VTo WHIP with a QUOTE = QUIP
p154
sS'meaning_1'
p155
Vnoun: a witty saying or remark
p156
sS'meaning_2'
p157
Vverb: to make a witty remark, to say in jest
p158
ssVsteadfast
p159
(dp160
S'eg_1'
p161
VA good captain needs to be steadfast, continuing to hold the wheel and stay the course even during the most violent storm.
p162
sg5
(lp163
V24
p164
ag11
ag12
ag27
ag27
ag11
asS'mnemonic_3'
p165
Vstead+fast...STEAD(substitute)...Coach choses that substitute(STEAD) FAST, who is the FIRM, LOYAL player in the team.
p166
sS'mnemonic_2'
p167
VSTEADFAST-- Split as STEADY+fast. someone who is steady always
p168
sS'mnemonic_1'
p169
Vsteadfast~stood + first ; One who has always STOOD with you and is the FIRST one to help you is a LOYAL friend. . Another meaning - Always STEADY so unswerving
p170
sS'meaning_1'
p171
Vadjective: marked by firm determination or resolution; not shakable
p172
ssVtarnish
p173
(dp174
S'eg_1'
p175
VPete Rose was one of the best baseball players of his generation, but his involvement with gambling on baseball games has tarnished his image in the eyes of many.
p176
sg5
(lp177
V23
p178
ag42
aV7
p179
ag11
ag27
ag42
asS'mnemonic_3'
p180
VTarnish and Polish are rhyming words and one helps to remove the other. If you apply polish to a rusted metal, it will help remove the tarnish.
p181
sS'mnemonic_2'
p182
Vopposite to varnish(A coating that provides a hard, lustrous, transparent finish to a surface)
p183
sS'mnemonic_1'
p184
Vits opposite of garnish..simple
p185
sS'meaning_1'
p186
Vverb: make dirty or spotty, as by exposure to air; also used metaphorically
p187
ssVdestitute
p188
(dp189
S'eg_1'
p190
VJean Valjean, is at first destitute, but through the grace of a priest, he makes something of his life.
p191
sg5
(lp192
V40
p193
ag27
aV17
p194
ag42
ag43
ag11
asS'eg_2'
p195
VNow that the mine is closed, the town is destitute of any economic activity.
p196
sS'mnemonic_3'
p197
Vdestitute ~ desi (indian) tutors are always ready to teach students in destitute condition for free.
p198
sS'mnemonic_2'
p199
VBreak it as DE+INSTITUE...that means the person whi has never been to any INSTITUTE..i.e. who is ILLITERATE is very poor
p200
sS'mnemonic_1'
p201
Vdesi+tit+cute like prostitute ->they r poor thats why they det into prostitution..... no hard feelings
p202
sS'meaning_1'
p203
Vadjective: poor enough to need help from others
p204
sS'meaning_2'
p205
Vadjective: completely wanting or lacking (usually "destitute of")
p206
ssVperturb
p207
(dp208
S'eg_1'
p209
VNow that Henry is recovering from a major illnesses, he no longer lets the little trivialities, such as late mail, perturb him.
p210
sg5
(lp211
V40
p212
ag27
aV14
p213
ag9
ag12
ag42
asS'mnemonic_3'
p214
Vper+turb = pertaining turbulance
p215
sS'mnemonic_2'
p216
VTUB== in a washing tub you mix washing powder and agiate the water.
p217
sS'mnemonic_1'
p218
Vperturb sounds like "disturb"
p219
sS'meaning_1'
p220
Vverb: disturb in mind or cause to be worried or alarmed
p221
ssVploy
p222
(dp223
S'eg_1'
p224
VDennis arranged an elaborate ploy, involving 14 different people lying for him in different situations, so that it could appear that he was meeting Mary completely by chance at the wedding reception.
p225
sg5
(lp226
V9
p227
ag11
ag179
ag11
ag11
ag11
asS'mnemonic_3'
p228
Vploy is plot
p229
sS'mnemonic_2'
p230
Vlooks like "play". When you play something you apply tactics to gain advantage.
p231
sS'mnemonic_1'
p232
Vploy sounds like employ..so you employ people in your company to gain advantage over other companies.
p233
sS'meaning_1'
p234
Vnoun: a clever plan to turn a situation to one's advantage
p235
ssVgoad
p236
(dp237
S'eg_1'
p238
VDoug did not want to enter the race, but Jim, through a steady stream of taunts, goaded him into signing up for it.
p239
sg5
(lp240
V85
p241
ag43
aV33
p242
ag9
aV11
p243
ag8
asS'mnemonic_3'
p244
VGOAd...Just think of GOA...This itself is enough to URGE or STIMULATE you to go there
p245
sS'mnemonic_2'
p246
Vgoad\u2026sounds like god\u2026..everyday when we  pray\u2026we always URGE to god ,to give us courage to face all the hurdles and obstacles in life.
p247
sS'mnemonic_1'
p248
Vgoad tells you to "GO And Do [it]"
p249
sS'meaning_1'
p250
Vverb: urge on with unpleasant comments
p251
ssVrash
p252
(dp253
S'meaning_1'
p254
Vadjective: marked by defiant disregard for danger or consequences; imprudently incurring risk
p255
sS'eg_1'
p256
VAlthough Bruce was able to make the delivery in time with a nighttime motorcycle ride in the rain, Susan criticized his actions as rash.
p257
sS'mnemonic_1'
p258
Vrash , think about the computer game roadrash- where a series of unpleasant and unexpected things happens in the road.
p259
sg5
(lp260
g27
ag11
assVirk
p261
(dp262
S'meaning_1'
p263
Vverb: irritate or vex
p264
sS'eg_1'
p265
VMy little sister has a way of irking and annoying me like no other person.
p266
sg5
(lp267
ssVobstinate
p268
(dp269
S'eg_1'
p270
VThe coach suggested improvements Sarah might make on the balance beam, but she remained obstinate, unwilling to modify any of the habits that made her successful in the past.
p271
sg5
(lp272
V31
p273
ag8
aV20
p274
ag227
ag179
ag11
asS'mnemonic_3'
p275
Vobs+tin(ate), obsessive teens,they are stubborn,hard to control
p276
sS'mnemonic_2'
p277
Vob+stin+ate.. stin means to stand.. and a stubborn person will always stand by his view..
p278
sS'mnemonic_1'
p279
Vobs+tin+ate he ate tin so he is stubborn fellow as he is hard to control
p280
sS'meaning_1'
p281
Vadjective: resistant to guidance or discipline; stubbornly persistent
p282
ssVconvoluted
p283
(dp284
S'eg_1'
p285
VInstead of solving the math problem in three simple steps, Kumar used a convoluted solution requiring fifteen steps.
p286
sg5
(lp287
V45
p288
ag106
aV20
p289
ag8
ag43
aV11
p290
asS'mnemonic_3'
p291
VConvoluted sounds similar to convalescent; and a convalescent home would require intricate and complicated medical care for its patients
p292
sS'mnemonic_2'
p293
Vvolve is root which means to roll. con is prefix which means together.If you roll some thing completely (within it self) it becomes complicated!! and difficult to entangle it!
p294
sS'mnemonic_1'
p295
VConvolution theorem was very hard to understand!!
p296
sS'meaning_1'
p297
Vadjective: highly complex or intricate
p298
ssVretract
p299
(dp300
S'eg_1'
p301
VEmail is wonderfully efficient, but once something awkward or damaging has been sent, there is no way to retract it.
p302
sg5
(lp303
V19
p304
ag42
ag9
ag43
ag27
ag11
asS'mnemonic_3'
p305
VProtract is prolong or expand,whereas,retract is withdraw or take back.
p306
sS'mnemonic_2'
p307
VRe(BACK)+tract(TRACKING) whenever our mobile is stolen we TRACK it in order to TAKE BACK from thieves
p308
sS'mnemonic_1'
p309
Vretract->RE TAKE IT, meaning to take back
p310
sS'meaning_1'
p311
Vverb: pull inward or towards a center; formally reject or disavow a formerly held belief, usually under pressure
p312
ssVaphoristic
p313
(dp314
S'meaning_1'
p315
Vadjective: something that is concise and instructive of a general truth or principle
p316
sS'eg_1'
p317
VSometimes I can't stand Nathan because he tries to impress everyone by being aphoristic, but he just states the obvious.
p318
sS'mnemonic_1'
p319
Vaphor= A4 ; write in just a4 sheet => brief & short
p320
sg5
(lp321
g42
ag11
assVpeevish
p322
(dp323
S'eg_1'
p324
VOur office manager is peevish, so the rest of us tip-toe around him, hoping not to set off another one of his fits.
p325
sg5
(lp326
V15
p327
ag179
ag106
ag27
ag43
ag27
asS'mnemonic_3'
p328
Vpee means toilet vish means wish so peeing in any place where u wish is irritable
p329
sS'mnemonic_2'
p330
VSomeone who wishes(~VISHes) to go to the bathroom to PEE but cannot because they is no vacancy will be irritated
p331
sS'mnemonic_1'
p332
Vpee+vish( pee means asking forcibly to drink,,, n vish is poison) so irritating easily..
p333
sS'meaning_1'
p334
Vadjective: easily irritated or annoyed
p335
ssVunprecedented
p336
(dp337
S'eg_1'
p338
VWhen America first created its national parks, the idea of setting aside the most beautiful land in a country was unprecedented in the history of mankind.
p339
sg5
(lp340
V13
p341
ag11
ag43
ag11
ag27
ag11
asS'mnemonic_3'
p342
Vun+preced+ent+ed -> Never went to ent before or known before.
p343
sS'mnemonic_2'
p344
Vun (not) precede(proceed...so we generally proceed with math problems with an eg..its something like not proceed with previous example
p345
sS'mnemonic_1'
p346
VUN(not)..PRECEDE(event occured in past)...so unprecedented means something which has never occured in past or it is novel
p347
sS'meaning_1'
p348
Vadjective: having never been done or known before; novel
p349
ssVexemplify
p350
(dp351
S'eg_1'
p352
VLincoln exemplified the best of not only America, but also the potential greatness that exists within each person.
p353
sg5
(lp354
V15
p355
ag11
asS'eg_2'
p356
VPlease present some case studies that exemplify the results that you claim in your paper.
p357
sS'mnemonic_1'
p358
Vamplify with example
p359
sS'meaning_1'
p360
Vverb: be characteristic of
p361
sS'meaning_2'
p362
Vverb: clarify by giving an example of
p363
ssVserene
p364
(dp365
S'meaning_1'
p366
Vadjective: calm and peaceful
p367
sS'eg_1'
p368
VI'd never seen him so serene; usually, he was a knot of stress and anxiety from hours of trading on the stock exchange.
p369
sS'mnemonic_2'
p370
VSay this like..Its(i silent)+rain...in the burning heat of summer...u feel more calm & relaxed..(Syn-Placid)
p371
sS'mnemonic_1'
p372
Vwhen we se(see)+rene(rain) in hot season,we become calm
p373
sg5
(lp374
g12
ag11
ag11
ag27
assVderogative
p375
(dp376
S'meaning_1'
p377
Vadjective: expressed as worthless or in negative terms
p378
sS'eg_1'
p379
VNever before have we seen a debate between two political candidates that was so derogative and filthy.
p380
sg5
(lp381
ssVexasperate
p382
(dp383
S'eg_1'
p384
VAs a child, I exasperated my mother with strings of never-ending questions.
p385
sg5
(lp386
V14
p387
ag11
aV11
p388
ag11
ag227
ag43
asS'mnemonic_3'
p389
Vexasperate = expired aspirin + ate- I ate expired aspirin which worsened my health
p390
sS'mnemonic_2'
p391
VEXASPERATE ~ x + separate; if you are going to irritate your wife frequently, she may separate from you and will be called as your x-wife.
p392
sS'mnemonic_1'
p393
Vexasperate(excess + parade)=hence u r ill and if u r asked to parade excess u will annoy and become angry as it may worsen your health condition
p394
sS'meaning_1'
p395
Vverb: to irritate intensely
p396
ssVtaxing
p397
(dp398
S'meaning_1'
p399
Vadjective: use to the limit; exhaust
p400
sS'eg_1'
p401
VThe hike to the summit of Mt. Whitney was so taxing that I could barely speak or stand up.
p402
sS'note'
p403
VThis word has other definitions but this is the most important one to study
p404
sS'mnemonic_1'
p405
VPaying off the tax nowadays is not a easy one and is very burdensome
p406
sg5
(lp407
g11
ag11
assVcredulity
p408
(dp409
S'eg_1'
p410
VVirginia's wide-eyed credulity as a five-year old was replaced by suspicion after she learned that Santa Claus didn't really exist.
p411
sg5
(lp412
V10
p413
ag42
ag106
ag11
ag27
ag11
asS'mnemonic_3'
p414
VIf you gave your friend a fake credit card, and if he/she think's it's real then he's a credulous person.
p415
sS'mnemonic_2'
p416
VCRED means to believe. so, credo, credible, credence, credit, credential, credulity, incredulous, creed, incredible all are associated with believe.
p417
sS'mnemonic_1'
p418
Vcredibility means belief on proved evidences and credulity means believing too easily
p419
sS'meaning_1'
p420
Vnoun: tendency to believe readily
p421
ssVtact
p422
(dp423
S'meaning_1'
p424
Vnoun: consideration in dealing with others and avoiding giving offense
p425
sS'eg_1'
p426
VIn a tremendous display of tact, Shelly was able to maintain a strong friendship with Marcia, even though Marcia's husband, Frank, confessed to finding Shelley more attractive than Marcia.
p427
sS'mnemonic_2'
p428
Vjust one word we need for explanation "tactic"
p429
sS'mnemonic_1'
p430
Vtact= t(=talent)+ act ... so, if you want to show your talent, you need to have the tact to put your act together.
p431
sg5
(lp432
V11
p433
ag27
ag179
ag42
assVimpregnable
p434
(dp435
S'eg_1'
p436
VAs a child, Amy would build pillow castles and pretend they were impregnable fortresses.
p437
sg5
(lp438
V39
p439
ag27
ag179
ag11
ag27
ag11
asS'mnemonic_3'
p440
VIm+Pregnable= read like not+pregnant. When women are pregant,they become vulnerable to death. so impregnable means invulnerable
p441
sS'mnemonic_2'
p442
Vim-'not'+pregnable sounds similar to pregnant.so if u are pregnant u cant withstand attacks and if u are IMPREGNABLE you are ABLE TO WITHSTAND ATTACK
p443
sS'mnemonic_1'
p444
Vim-pregnable = cannot be made pregnant. , In early days there used to be iron clothings around chaste maidens' waste so that they can not be made pregnant by strangers.. thus these women were impregnable= invulnerable
p445
sS'meaning_1'
p446
Vadjective: immune to attack; incapable of being tampered with
p447
ssVunseemly
p448
(dp449
S'eg_1'
p450
VHe acted in an unseemly manner, insulting the hostess and then speaking ill of her deceased husband.
p451
sg5
(lp452
V14
p453
ag11
ag27
ag11
ag11
ag42
asS'mnemonic_3'
p454
Vsounds like "uncomely" which is not pleasing means improper behavior
p455
sS'mnemonic_2'
p456
Vun seemly-> seeing me undress and becoming indecent.
p457
sS'mnemonic_1'
p458
VUN+SEEM- does not seem normal or proper in behavior
p459
sS'meaning_1'
p460
Vadjective: not in keeping with accepted standards of what is right or proper in polite society
p461
ssVfoible
p462
(dp463
S'eg_1'
p464
VWhen their new roommate sat staring at an oak tree for an hour, Marcia thought it indicated a mental problem, but Jeff assured her it was a harmless foible.
p465
sg5
(lp466
V37
p467
ag227
aV11
p468
ag227
ag9
ag8
asS'mnemonic_3'
p469
Vsimilar to feeble thus enfeeeble and weakness
p470
sS'mnemonic_2'
p471
Vconsider the letters F+O+I+B+L+E..they stand for Fault+Oddity+Idiosyncrasy+Blemish+Limitation+Eccentricity..all of the same meaning
p472
sS'mnemonic_1'
p473
VFail to be able.. so you have a weakness or slight fault at something
p474
sS'meaning_1'
p475
Vnoun: a behavioral attribute that is distinctive and peculiar to an individual
p476
ssVembellish
p477
(dp478
S'eg_1'
p479
VMcCartney would write relatively straightforward lyrics, and Lennon would embellish them with puns and poetic images.
p480
sg5
(lp481
V33
p482
ag43
aV15
p483
ag43
ag106
ag11
asS'mnemonic_3'
p484
Vconcentrate on the middle section of this word - belli (Belly), which is said to be one of the most sexiest part of the female body. So girls usually adorn it (by Belly Ring) to enhance its beauty.
p485
sS'mnemonic_2'
p486
Vbelle is used to describe beautiful girls.. they generally adorn themselves
p487
sS'mnemonic_1'
p488
VemBELLish--we add BELL to the Christmas tress to adorn it
p489
sS'meaning_1'
p490
Vverb: make more attractive by adding ornament, colour, etc.; make more beautiful
p491
ssVsmug
p492
(dp493
S'eg_1'
p494
VWhen Phil was dating the model, he had a smug attitude that annoyed his buddies.
p495
sg5
(lp496
V23
p497
ag27
aV10
p498
ag11
ag11
ag227
asS'mnemonic_3'
p499
Vvery close to "sluggish" (lazy).
p500
sS'mnemonic_2'
p501
Vwhen we drink a MUG of some drink,we feel SELF-SATISFIED
p502
sS'mnemonic_1'
p503
VSMUGgler has enough money to be self satisfied.
p504
sS'meaning_1'
p505
Vadjective: marked by excessive complacency or self-satisfaction
p506
ssVreservation
p507
(dp508
S'meaning_1'
p509
Vnoun: an unstated doubt that prevents you from accepting something wholeheartedly
p510
sS'eg_1'
p511
VI was initially excited by the idea of a trip to Washington, D.C. but now that I have read about the high crime statistics there, I have some reservations.
p512
sg403
VThis word has other definitions but this is the most important one to study
p513
sS'mnemonic_1'
p514
Vreservation
p515
sg5
(lp516
g11
ag11
assVmalevolent
p517
(dp518
S'eg_1'
p519
VVillains are known for their malevolent nature, oftentimes inflicting cruelty on others just for enjoyment.
p520
sg5
(lp521
V24
p522
aV12
p523
aV19
p524
ag43
ag9
ag43
asS'mnemonic_3'
p525
Vviolent males are wishing evil to the society
p526
sS'mnemonic_2'
p527
Vopposite of benevolent
p528
sS'mnemonic_1'
p529
Vmalevolent = male +violent Violent males can cause more harm to society than females
p530
sS'meaning_1'
p531
Vadjective: wishing or appearing to wish evil to others; arising from intense ill will or hatred
p532
ssVcomplacent
p533
(dp534
S'eg_1'
p535
VAfter the water polo team won their sixth championship, they became complacent and didn't even make it to the playoffs the next year.
p536
sg5
(lp537
V15
p538
ag27
ag179
ag27
ag27
ag27
asS'mnemonic_3'
p539
Vcommonplace people are self-satisfied = complacent
p540
sS'mnemonic_2'
p541
Vcomplacent = completely satisfed
p542
sS'mnemonic_1'
p543
Vplacement ... hogaya ab i am fully satisfied with myself
p544
sS'meaning_1'
p545
Vadjective: contented to a fault with oneself or one's actions
p546
ssVdiligent
p547
(dp548
S'eg_1'
p549
VMichael was a diligent gardener, never leaving a leaf on the ground and regularly watering each plant.
p550
sg5
(lp551
g9
ag43
ag27
ag12
ag27
ag8
asS'mnemonic_3'
p552
Vsomebody who is averagely intelligent what he/she has to do? Work hard! So..deligent is hardworking....
p553
sS'mnemonic_2'
p554
VThere are many ISI agents in Dili (Dehli) so care and persevarence are required to carry out the security taks
p555
sS'mnemonic_1'
p556
V(DILI + AGENT): AGENT working in DILLI have to be CAREFUL and HARDWORKING
p557
sS'meaning_1'
p558
Vadjective: characterized by care and perseverance in carrying out tasks
p559
ssVenmity
p560
(dp561
S'meaning_1'
p562
Vnoun: a state of deep-seated ill-will
p563
sS'eg_1'
p564
VThe rude remark Charles made toward Sarah yesterday was due to his illness, not due to any real enmity toward Sarah.
p565
sS'mnemonic_2'
p566
Venimy.... ill will towards ur enemy
p567
sS'mnemonic_1'
p568
Venmi+(T)+y...just focus on the letters enmiy..very close to the word enemy...and enemies always have an ILLWILL AND HATRED FOR YOU.
p569
sg5
(lp570
V12
p571
ag11
ag11
ag27
assVeke
p572
(dp573
S'meaning_1'
p574
Vverb: To live off meager resources, to scrape by
p575
sS'eg_1'
p576
VStranded in a cabin over the winter, Terry was able to eke out an existence on canned food.
p577
sg5
(lp578
ssVconnive
p579
(dp580
S'eg_1'
p581
VWith the help of the prince, the queen connived to overthrow the king.
p582
sg5
(lp583
g42
ag27
ag27
ag42
ag27
ag11
asS'mnemonic_3'
p584
Va con man with knife is there to conspire
p585
sS'mnemonic_2'
p586
VCOME+LEAVE....come to my place and we will leave this country....this is how criminal plan and do illicit things....
p587
sS'mnemonic_1'
p588
Vconnive- con-spire, conspire- do something secretly
p589
sS'meaning_1'
p590
Vverb: taking part in immoral and unethical plots
p591
ssVcollusion
p592
(dp593
S'eg_1'
p594
VMany have argued that Lee Harvey Oswald, JFK's assassin, was in collusion with other criminals; others maintain that Oswald was a lone gunman.
p595
sg5
(lp596
V35
p597
ag43
aV27
p598
aV16
p599
aV14
p600
aV11
p601
asS'mnemonic_3'
p602
Vollu- resembles ullu(owl) ,,ullu banaya..vo fraud nikala..
p603
sS'mnemonic_2'
p604
VYou can just see  some Illusions of a collusion.
p605
sS'mnemonic_1'
p606
Vpeople who involve in collusion, try to create an Illusion that everything is fine
p607
sS'meaning_1'
p608
Vnoun: agreement on a secret plot
p609
ssVtout
p610
(dp611
S'eg_1'
p612
VAt the conference, the CEO touted the extraordinary success of his company's Research & Development division.
p613
sg5
(lp614
V47
p615
ag27
aV13
p616
ag12
ag227
ag27
asS'mnemonic_3'
p617
Vtout= t + out tell it out...this process is called promoting or advertising
p618
sS'mnemonic_2'
p619
Vimprove the previous mnemonic...imagine a stout person praising his muscles
p620
sS'mnemonic_1'
p621
Vtout: shout to promote. (to publicly praise or promote)
p622
sS'meaning_1'
p623
Vverb: advertize in strongly positive terms; show off
p624
ssVsavvy
p625
(dp626
S'eg_1'
p627
VAlthough a great CEO, he did not have the political savvy to win the election.
p628
sg5
(lp629
g42
ag27
asS'eg_3'
p630
VWith his savvy business partner, the company was able to turn a profit within a year.
p631
sS'eg_2'
p632
VThe student savvies the meaning of astrophysics with little effort.
p633
sS'mnemonic_1'
p634
Vjack sparrow frequently uses the word "savvy"...!!!
p635
sS'meaning_1'
p636
Vnoun: a perceptive understanding
p637
sS'meaning_3'
p638
Vadjective: well-informed or perceptive
p639
sS'meaning_2'
p640
Vverb: get the meaning of something
p641
ssVdevolve
p642
(dp643
S'eg_1'
p644
VThe company was full of managers known for devolving tasks to lower management, but never doing much work themselves.
p645
sg5
(lp646
V43
p647
ag43
aV14
p648
ag106
aV10
p649
ag11
asS'eg_2'
p650
VThe dialogue between the two academics devolved into a downright bitter argument.
p651
sS'mnemonic_3'
p652
VDE(not)+INVOLVE means not involved but to pass on,delegaate
p653
sS'mnemonic_2'
p654
VWell its quite opposite to EVOLVE(grow nicely)
p655
sS'mnemonic_1'
p656
Vif you are involved you do the work.....but if you DEVOLVE it to someone else then you are no longer involved in it.
p657
sS'meaning_1'
p658
Vverb: pass on or delegate to another
p659
sS'meaning_2'
p660
Vverb: grow worse (usually "devolve into")
p661
ssVcandidness
p662
(dp663
S'meaning_1'
p664
Vnoun: the quality of being honest and straightforward in attitude and speech
p665
sS'eg_1'
p666
VAlthough I was unhappy that the relationship ended, I appreciated her candidness about why she was ready to move on from the relationship.
p667
sg5
(lp668
ssVplacid
p669
(dp670
S'eg_1'
p671
VDoug is normally placid, so we were all shocked to see him yelling at the television when the Mets lost the game.
p672
sg5
(lp673
V46
p674
ag8
ag106
ag42
ag43
ag11
asS'mnemonic_3'
p675
Vplay CID you need to be calm and composed
p676
sS'mnemonic_2'
p677
Vif a student gets PLACED in a company as soon as he finishes his study, then his life will be calm without any disturbances
p678
sS'mnemonic_1'
p679
Va student well PLACED in his college will sit calmly and peacefully...as compared to those who did not get placed.
p680
sS'meaning_1'
p681
Vadjective: not easily irritated
p682
ss.