(dp0
Vculpability
p1
(dp2
S'meaning_1'
p3
Vnoun: a state of guilt
p4
sS'eg_1'
p5
VSince John had left his banana peel at the top of the stairwell, he accepted culpability for Martha's broken leg.
p6
sS'ratings'
p7
(lp8
ssVdiffident
p9
(dp10
S'eg_1'
p11
VAs a young girl she was diffident and reserved, but now as an adult, she is confident and assertive.
p12
sg7
(lp13
V34
p14
aV3
p15
aV13
p16
aV0
p17
aV5
p18
aV1
p19
asS'mnemonic_3'
p20
VSounds similar to Confidence..instead of con this word has dif in beginning.. dif (difference, subtract and hence in negative sense)..so diffident means opposite of confidence.
p21
sS'mnemonic_2'
p22
VThe root DI- means lacking. The root FIDE- (like FIDElity) means trust. Therefore, DIFFIDENT means lacking trust or confidence
p23
sS'mnemonic_1'
p24
Vdiffident = difficult to be confident
p25
sS'meaning_1'
p26
Vadjective: showing modest reserve; lacking self-confidence
p27
ssVglut
p28
(dp29
S'eg_1'
p30
VThe Internet offers such a glut of news related stories that many find it difficult to know which story to read first.
p31
sg7
(lp32
V24
p33
aV2
p34
aV8
p35
aV6
p36
ag15
aV7
p37
asS'eg_2'
p38
VIn the middle of economic crises, hiring managers find their inboxes glutted with resumes.
p39
sS'mnemonic_3'
p40
VLike if there is sth, sum discount,or a sale for surplus clothes..There becomes a lut(loot) for the clothes!
p41
sS'mnemonic_2'
p42
Vsounds like "gale tak" means food gale tak aa gaya hai...filled beyond capacity.
p43
sS'mnemonic_1'
p44
Vglut=Gain a Lot..excess
p45
sS'meaning_1'
p46
Vnoun: an excessive supply
p47
sS'meaning_2'
p48
Vverb: supply with an excess of
p49
ssVprescience
p50
(dp51
S'eg_1'
p52
VBaxter's warnings about investing in technology stocks seemed like an act of prescience after the whole market declined significantly.
p53
sg7
(lp54
V18
p55
ag19
ag15
ag17
ag19
ag19
asS'mnemonic_3'
p56
Vprescience=portend = presage=premonoitor
p57
sS'mnemonic_2'
p58
VPRE(before)SCIENCE we had prophets to know the future
p59
sS'mnemonic_1'
p60
Vpre(before)+science(..knowledge)..i.e. having the knowledge to TELL THE FUTURE BEFORE TIME...
p61
sS'meaning_1'
p62
Vnoun: the power to foresee the future
p63
ssVconcede
p64
(dp65
S'eg_1'
p66
VI concede. You win!
p67
sg7
(lp68
g35
aV13
p69
ag34
aV19
p70
ag34
ag19
asS'eg_3'
p71
VThe Spanish were forced to concede much of the territory they had previously conquered.
p72
sS'eg_2'
p73
VAfter a long, stern lecture from her father, Olivia conceded to having broken the window.
p74
sS'mnemonic_3'
p75
Vcon+cede---surrender(cede). surrender and accept sth to be true reluctantly
p76
sS'mnemonic_2'
p77
Vsounds like "convince". If you convince someone about something, he admits it.
p78
sS'mnemonic_1'
p79
VConcede = Cede.
p80
sS'meaning_1'
p81
Vverb: acknowledge defeat
p82
sS'meaning_3'
p83
Vverb: give over; surrender or relinquish to the physical control of another
p84
sS'meaning_2'
p85
Vverb: admit (to a wrongdoing)
p86
ssVgall
p87
(dp88
S'eg_1'
p89
VThe speeding car had the gall to switch five lanes at once, run through a red light, and then cut off a police car before finally coming to a stop in front of a sea of flashing red lights.
p90
sg7
(lp91
V60
p92
ag18
aV29
p93
ag15
aV11
p94
ag17
asS'eg_2'
p95
VIn an act of gall, Leah sent compromising photos of her ex-boyfriend to all his co-workers and professional contacts.
p96
sS'mnemonic_3'
p97
VGallbladder -> GALL. Note that many of the words with roots from body organs mean irritable or anger. Examples: splenetic, spleen, bilious, atrabilious, dyspeptic, livery, gall, and liverish.
p98
sS'mnemonic_2'
p99
Vgall - an organ named gall bladder produces a liquid called bile, which is BITTER
p100
sS'mnemonic_1'
p101
VA slap on his 'Gall'(cheek) completely exasperated him.
p102
sS'meaning_1'
p103
Vnoun: the trait of being rude and impertinent
p104
sS'meaning_2'
p105
Vnoun: feeling of deep and bitter anger and ill-will
p106
ssVbanal
p107
(dp108
S'eg_1'
p109
VThe professor used such banal expression that many students in the class either fell asleep from boredom or stayed awake to complete his sentences and humor friends.
p110
sg7
(lp111
V28
p112
aV10
p113
aV19
p114
aV21
p115
aV12
p116
ag34
asS'mnemonic_3'
p117
V'ban + al' --> 'ban all' those directors whose movies are 'banal' (the same old story lines are repeated ; (another meaning) dull and  unoriginal(dubbed))
p118
sS'mnemonic_2'
p119
VSPLIT INTO ba-nal. ba-BAR - COMMONPLACE FOR MEN TO MEET . &. NAL(HINDI - TAP) - COMMON PLACE FOR WOMEN TO MEET.
p120
sS'mnemonic_1'
p121
Vabey nal to roz hi kholte hain...
p122
sS'meaning_1'
p123
Vadjective: repeated too often; overfamiliar through overuse
p124
ssVaesthete
p125
(dp126
S'eg_1'
p127
VA true aesthete, Marty would spend hours at the Guggenheim Museum, staring at the same Picasso.
p128
sg7
(lp129
g19
ag19
ag17
ag17
ag17
ag17
asS'mnemonic_3'
p130
Vaesthete looks like ester festival of muslim in which the muslims exchange love and understanding
p131
sS'mnemonic_2'
p132
VSomeone who admires AESTHETIC things.
p133
sS'mnemonic_1'
p134
Vasethe(sounds like AASTHA)+te-a person who has great aastha in hindu religion, always appreciates the beauty of nature and art(like worship of trees show   sensitivity of a person towards beauty of nature.aastha for hindu religi'n
p135
sS'meaning_1'
p136
Vnoun: one who professes great sensitivity to the beauty of art and nature
p137
ssVrustic
p138
(dp139
S'eg_1'
p140
VThe vacation cabin had no electricity and no indoor plumbing, but despite these inconveniences, Nigel adored its rustic charm.
p141
sg7
(lp142
V10
p143
ag34
ag37
ag17
ag34
ag17
asS'mnemonic_3'
p144
VPicture an old RUSTING tractor.
p145
sS'mnemonic_2'
p146
Vrustic=ruralistic
p147
sS'mnemonic_1'
p148
VThink of RUST, which reminds us of something which is old or has worn out, hence country people are old fashioned, rural or slightly backwards
p149
sS'meaning_1'
p150
Vadjective: characteristic of rural life; awkwardly simple and provincial
p151
ssVmawkish
p152
(dp153
S'eg_1'
p154
VThe film was incredibly mawkish, introducing highly likeable characters only to have them succumb to a devastating illness by the end of the movie.
p155
sg7
(lp156
V46
p157
aV4
p158
aV18
p159
aV10
p160
ag36
ag158
asS'mnemonic_3'
p161
VMawkish: Read it as -Make+Wish: An insincerely emotional person is always ready to make wish..
p162
sS'mnemonic_2'
p163
Vmawk close to MOCK..so if someone mocks at you...and you are sentimental..then its a sad situation.
p164
sS'mnemonic_1'
p165
V"Maa" ka "kiss" hamesha sentimental aur emotional hota hai!
p166
sS'meaning_1'
p167
Vadjective: overly sentimental to the point that it is disgusting
p168
ssVgossamer
p169
(dp170
S'eg_1'
p171
VThe gossamer wings of a butterfly, which allow it to fly, are also a curse, so delicate that they are often damaged.
p172
sg7
(lp173
V49
p174
ag19
aV19
p175
aV11
p176
aV10
p177
ag158
asS'mnemonic_3'
p178
VOne can relate the sound of GOSS in Gossamer to wire-guaze. Wherein thin, tenous wires are criss-crossed and wound
p179
sS'mnemonic_2'
p180
VSOUNDS LIKE gussa..mar de yaar..gussa mat ho.....take things  lightly....light lena sikho..yaar..that's how you advice your friend.
p181
sS'mnemonic_1'
p182
VGO+SAMMER(summer) - we wear clothes of light fabric
p183
sS'meaning_1'
p184
Vadjective: characterized by unusual lightness and delicacy
p185
ssVexacerbate
p186
(dp187
S'eg_1'
p188
VHer sleeplessness exacerbated her cold--when she woke up the next day, her sinuses were completely blocked.
p189
sg7
(lp190
V60
p191
aV10
p192
aV35
p193
aV20
p194
aV21
p195
aV11
p196
asS'mnemonic_3'
p197
V"Ex Her b Ate".. her ex came and ate with her family. which worsen the relation even more.
p198
sS'mnemonic_2'
p199
Vif in an Exam u keep your hand on your head[ie SAR(in hindi)/CER]...you wil WORSEN your paper...
p200
sS'mnemonic_1'
p201
VLatin ex+acerb+ate; Latin acerb- means bitter, harsh; So exacerbate means to make bittter, to worsen.
p202
sS'meaning_1'
p203
Vverb: make worse
p204
ssVrecondite
p205
(dp206
S'eg_1'
p207
VI found Ulysses recondite and never finished the book, waiting instead to read it with someone else so we could penetrate its meaning together.
p208
sg7
(lp209
V84
p210
ag19
aV18
p211
aV31
p212
ag37
ag35
asS'mnemonic_3'
p213
VRECKON + TRITE (repeated) = the word was DIFFICULT TO UNDERSTAND even after REPEATED attempts to RECKON its meaning.
p214
sS'mnemonic_2'
p215
Vrecon-dite:recon sounds like reckon which means guess...if a question is DIFFICULT TO UNDERSTAND u will GUESS the answer
p216
sS'mnemonic_1'
p217
Vread recondite as "re conduct". The professor re coducted(repeated) the topic as the students could not understand properly.
p218
sS'meaning_1'
p219
Vadjective: difficult to penetrate; incomprehensible to one of ordinary understanding or knowledge
p220
ssVvolubility
p221
(dp222
S'meaning_1'
p223
Vnoun: the quality of talking or writing easily and continuously
p224
sS'eg_1'
p225
VThe professor's volubility knows no bounds; he could talk through a hurricane and elaborate a point from one St. Patrick's Day to the next.
p226
sS'mnemonic_1'
p227
Vvol= volume. and volume straightly gives us the idea of speech
p228
sg7
(lp229
g34
ag17
assVfortuitous
p230
(dp231
S'meaning_1'
p232
Vadjective: occurring by happy chance; having no cause or apparent cause
p233
sS'eg_1'
p234
VThough Maria's neighbor Ernie "bumped into" her at the Farmer's Market, the encounter wasn't nearly as fortuitous as Maria was led to believe: Ernie desperately wanted to ask Maria out on a date and had been following her about town.
p235
sS'mnemonic_2'
p236
VEveryone doesnot get a happy chance for joining tutions..those who get it are fortuitous
p237
sS'mnemonic_1'
p238
Vequivalent to fortune.............. fortune isn't destined to occur it is accidental
p239
sg7
(lp240
V47
p241
ag15
ag17
ag34
assVquerulous
p242
(dp243
S'eg_1'
p244
VThe querulous old woman was beginning to wear down even the happier members of the staff with her ceaseless complaining.
p245
sg7
(lp246
V48
p247
ag36
aV18
p248
ag17
ag34
ag15
asS'mnemonic_3'
p249
Vquerulous : quarrelsome louse.
p250
sS'mnemonic_2'
p251
VQUERULOUS=QUARREL-ous
p252
sS'mnemonic_1'
p253
VOne who keeps questioning (querying) everything.
p254
sS'meaning_1'
p255
Vadjective: habitually complaining
p256
ssVplatitude
p257
(dp258
S'eg_1'
p259
VThe professor argued that many statements regarded as wise in previous times, such as the Golden Rule, are now regarded as mere platitudes.
p260
sg7
(lp261
V77
p262
ag158
ag158
aV17
p263
ag15
ag17
asS'mnemonic_3'
p264
VLatitudes vary from place to place ...whereas Platitude is common to all ..i.e. COMMONPLACE...ORDINARY ... TRITE...
p265
sS'mnemonic_2'
p266
Vor we can think of plastic: it is veru cheap and of very little value just like platitude
p267
sS'mnemonic_1'
p268
Vflat + attitude:. something flat does not attract us as it is very common. So you will obviously give trite remarks.
p269
sS'meaning_1'
p270
Vnoun: a trite or obvious remark
p271
ssVsuperfluous
p272
(dp273
S'eg_1'
p274
VHow can we hope to stay open if we don't eliminate all superfluous spending, like catered meetings and free acupuncture Tuesday?
p275
sg7
(lp276
V24
p277
ag17
ag17
ag17
ag17
ag19
asS'eg_2'
p278
VThe third paragraph in your essay is superfluous and can be deleted.
p279
sS'mnemonic_3'
p280
Vsuper flow of water in the jar;why?because it is excess n more than required in the jar
p281
sS'mnemonic_2'
p282
Vsounds like surplus - you have more than you need when there is a surplus of it
p283
sS'mnemonic_1'
p284
Vdivide it as super+flow.. when there is large(super) flow of water, it becomes EXCESSIVE / OVERABUNDANCE of water..
p285
sS'meaning_1'
p286
Vadjective: serving no useful purpose
p287
sS'meaning_2'
p288
Vadjective: more than is needed, desired, or required
p289
ssVfrivolous
p290
(dp291
S'eg_1'
p292
VCompared to Juliet's passionate concern for human rights, Jake's non-stop concern about football seems somewhat frivolous.
p293
sg7
(lp294
V25
p295
ag19
ag37
ag19
ag19
ag36
asS'mnemonic_3'
p296
Vi do feel a bit FIVIRISH,, but nothing too serious or anything to worry about
p297
sS'mnemonic_2'
p298
VFri+vol+ous = Free+Will ->one who acts with his own will, carefree, not serious.
p299
sS'mnemonic_1'
p300
VFri-vo-lous. ~Free - If something is free, u dont take it seriously, you think oh they are giving it for free coz its not that important stuff.. or not the stuff in demand.. or not the stuff taken seriously by public..
p301
sS'meaning_1'
p302
Vadjective: not serious in content or attitude or behavior
p303
ssVtorpor
p304
(dp305
S'eg_1'
p306
VAfter work, I was expecting my colleagues to be enthusiastic about the outing, but I found them in a state of complete torpor.
p307
sg7
(lp308
V45
p309
ag34
aV18
p310
ag18
aV11
p311
ag19
asS'mnemonic_3'
p312
VRAJ THAKERY TO MNS PEOPLE.."aaj tum sab itne LATHARGIC,SLUGGISH kyu lag rahe ho? hume kal THOD PHOD karne jana hai...yaad hai na?",,,,,,,,:)
p313
sS'mnemonic_2'
p314
Vtor-por....TORRENT PAR..........TORRENT PAR most of the seeders were INACTIVE due to which downloading the movie becomes a SLUGGISH task....
p315
sS'mnemonic_1'
p316
VWell its quite opposite to what is a topper who is naturally. diligent
p317
sS'meaning_1'
p318
Vnoun: inactivity resulting from lethargy and lack of vigor or energy
p319
ssVimpudent
p320
(dp321
S'eg_1'
p322
VIn an impudent move, the defendant spoke out of order to say terribly insulting things to the judge.
p323
sg7
(lp324
g35
ag19
ag158
ag36
ag158
ag19
asS'mnemonic_3'
p325
VIMPUre stuDENT - such a student is kept in for impudent behaviour
p326
sS'mnemonic_2'
p327
Vsounds like impunity, which means immune from punishment, which is characteristic of those who are shamelessly bold, insolent, impertinent = impudent.
p328
sS'mnemonic_1'
p329
V"Im" is the prefix meaning "not." "Pudent" sounds like "prudent." So someone who is impudent, is not prudent: he is insulting and rude.
p330
sS'meaning_1'
p331
Vadjective: improperly forward or bold
p332
ssVdictatorial
p333
(dp334
S'meaning_1'
p335
Vadjective: expecting unquestioning obedience; characteristic of an absolute ruler
p336
sS'eg_1'
p337
VThe coach was dictatorial in his approach: no players could ever argue or question his approach.
p338
sg7
(lp339
ssVengender
p340
(dp341
S'eg_1'
p342
VThe restrictions of the Treaty of Versailles were so severe that they engendered deep hatred and resentment in the German people.
p343
sg7
(lp344
V152
p345
ag34
aV29
p346
ag158
ag36
ag34
asS'mnemonic_3'
p347
Vengender ~ gene ~ make offspring
p348
sS'mnemonic_2'
p349
VWhen genders get together they cause, produce, and give rise to children.
p350
sS'mnemonic_1'
p351
Vwhen two gender's male & female end up together .. they produce or give rise to a CHILD..
p352
sS'meaning_1'
p353
Vverb: give rise to
p354
ssVgermane
p355
(dp356
S'eg_1'
p357
VThe professor wanted to tell the jury in detail about his new book, but the lawyer said it wasn't germane to the charges in the cases.
p358
sg7
(lp359
V50
p360
aV29
p361
aV17
p362
ag35
ag15
ag15
asS'mnemonic_3'
p363
VGIRL+MEIN....kisi girl mein interest hona relevant hain
p364
sS'mnemonic_2'
p365
VGer(main) : he asked the "main" (appropriate) question
p366
sS'mnemonic_1'
p367
Vgermane...very close to word ..germany..so if you want TO learn GERMAN LANGUAGE....I GUESS A GERMAN teacher would be APPROPRIATE.
p368
sS'meaning_1'
p369
Vadjective: relevant and appropriate
p370
ssVvociferous
p371
(dp372
S'eg_1'
p373
VIn giving Marcia a particular vociferous response, Paul caused people at every other table in the restaurant to turn around and look at them angrily.
p374
sg7
(lp375
V57
p376
ag17
aV26
p377
ag34
aV9
p378
ag17
asS'mnemonic_3'
p379
Vsounds like "voice of ferous(iron)" which is very noisy.
p380
sS'mnemonic_2'
p381
Vtake the second part of word --> FEROUS !!! . it is oer of IRON ... so when iron peices collide with each other .... they make noise !! . "" ferous --> iron --> collide to make noise  ""
p382
sS'mnemonic_1'
p383
VVOICE + FURIOUS = noisy
p384
sS'meaning_1'
p385
Vadjective: conspicuously and offensively loud; given to vehement outcry
p386
ssVdecorous
p387
(dp388
S'eg_1'
p389
VSally's parties are decorous affairs, and instead of the usual beer and music, there is tea and intellectual conversation.
p390
sg7
(lp391
V19
p392
ag158
ag35
ag37
ag19
ag17
asS'mnemonic_3'
p393
Vdeepak+in corous will be proper in behavior, conduct, or appearance
p394
sS'mnemonic_2'
p395
VYou can relate it to decorum.
p396
sS'mnemonic_1'
p397
Vdecor.DECORATE.if you decorate your ROOM it will look proper in appearance compared to hall.
p398
sS'meaning_1'
p399
Vadjective: characterized by good taste in manners and conduct
p400
ssVaudacious
p401
(dp402
S'eg_1'
p403
VAs all of the other campers cowered in their tents, Bill, armed only with a flashlight, audaciously tracked down the bear that had raided their food.
p404
sg7
(lp405
V56
p406
ag19
aV14
p407
ag19
ag158
ag17
asS'mnemonic_3'
p408
Vwhen you go for some audition you need to be bold and daring.
p409
sS'mnemonic_2'
p410
Vit sounds like "how dare she is(audacious)"i.e au(how)da(dare)c(she)ious(is)..so it is daring
p411
sS'mnemonic_1'
p412
Vaudacious..auda(AUDIBLE)....IF YOU WANT to be audible to millions of people you have to be very daring and bold ,to go to the stage and deliver your message.
p413
sS'meaning_1'
p414
Vadjective: willing to be bold in social situations or to take risks
p415
ssVdeferential
p416
(dp417
S'eg_1'
p418
VIf you ever have the chance to meet the president, stand up straight and be deferential.
p419
sg7
(lp420
g15
ag34
ag19
ag15
ag17
ag17
asS'mnemonic_3'
p421
Vdeferential ~ d reference : when giving a reference of someone in the office you respect him
p422
sS'mnemonic_2'
p423
VDue to Deferential genetic behaviour people look unique in their own terms
p424
sS'mnemonic_1'
p425
VSince deferential equations are difficult to solve, people stupid at math do not attempt them because they respect their difficulty....and probably have a life....
p426
sS'meaning_1'
p427
Vadjective: showing respect
p428
ssVlambast
p429
(dp430
S'meaning_1'
p431
Vverb: criticize severely or angrily
p432
sS'eg_1'
p433
VShowing no patience, the manager utterly lambasted the sales team that lost the big account.
p434
sS'mnemonic_2'
p435
VI+AM+THE+BEST...a person who repeatedly says this criticizes other people severely.....
p436
sS'mnemonic_1'
p437
VHave your mother ever rebuked u saying "lamba chora hogaya hai par akal nahi aayi" Lamba rymes with Lamba-st...
p438
sg7
(lp439
g19
ag19
ag19
ag17
assVperfidy
p440
(dp441
S'eg_1'
p442
VSure, he was the best salesman in the company; but Michael had abused the trust of the firm, sharing product secrets with a competitor, and for such perfidy he was terminated.
p443
sg7
(lp444
V24
p445
ag158
ag15
ag378
ag15
ag36
asS'mnemonic_3'
p446
VPAR(par-purush)FIDA....woman who is fida on other man
p447
sS'mnemonic_2'
p448
Vsounds like "dhokadhadi"
p449
sS'mnemonic_1'
p450
Vper+ fidy=without fidelity i.e cheat upon ur partner,,in general cheat or breach something
p451
sS'meaning_1'
p452
Vnoun: an act of deliberate betrayal; a breach of a trust
p453
ssVdogmatic
p454
(dp455
S'eg_1'
p456
VBryan is dogmatic in his belief that the earth is flat, claiming that all pictures of a spherical earth are computer generated.
p457
sg7
(lp458
V92
p459
ag15
ag15
aV12
p460
ag34
aV18
p461
asS'mnemonic_3'
p462
VDog+matic..... Dogs once chase you, they will not leave you, until bits you!!!
p463
sS'mnemonic_2'
p464
Vdogmatic=dogs+mat..dogs dont stay constantly on a mat...they always roam here and there....dogmatic means constant
p465
sS'mnemonic_1'
p466
VIf you try to read "dogmatic" from back to front, you will get "i am god". the person who think that he is a god is arrogant and stubborn
p467
sS'meaning_1'
p468
Vadjective: highly opinionated, not accepting that your belief may not be correct
p469
ssVinexorable
p470
(dp471
S'eg_1'
p472
VThe rise of the computer was an inexorable shift in technology and culture.
p473
sg7
(lp474
V37
p475
ag15
aV13
p476
ag34
ag37
aV10
p477
asS'mnemonic_3'
p478
Vinexhorable sounds likein-exhaust.. so a person who never gets exhausted by torturing people.an inhuman(as he is not getting exhausted),showing inhuman traits
p479
sS'mnemonic_2'
p480
Vexor is logic gate which changes. so in exorable is that cannot be changed or stopped
p481
sS'mnemonic_1'
p482
Vin(not)+exhort(means to pressurize):that  means a person who is inexorable cant be pressurised;he will not yield
p483
sS'meaning_1'
p484
Vadjective: impossible to stop or prevent
p485
ssVentrenched
p486
(dp487
S'meaning_1'
p488
Vadjective: fixed firmly or securely
p489
sS'eg_1'
p490
VBy the time we reach 60-years old, most of our habits are so entrenched that it is difficult for us to change.
p491
sS'mnemonic_1'
p492
VSounds like entrance. A house entrance is not easily modifiable and establish firmly
p493
sg7
(lp494
g17
ag34
assVgainsay
p495
(dp496
S'eg_1'
p497
VI can't gainsay a single piece of evidence James has presented, but I still don't trust his conclusion.
p498
sg7
(lp499
V130
p500
ag36
aV29
p501
ag37
aV15
p502
ag158
asS'mnemonic_3'
p503
VGAINSAY~ GHANTE SEY...we say ghante sey when we want to deny sumthing..so GAINSAY=GHANTE SEY= DENY
p504
sS'mnemonic_2'
p505
VA(gain)st-(say)
p506
sS'mnemonic_1'
p507
Vshe has (Gain)ed  weight but is not (say)ing it which means, she is denying the fact.
p508
sS'meaning_1'
p509
Vverb: deny or contradict; speak against or oppose
p510
ssVconspicuous
p511
(dp512
S'eg_1'
p513
VAmerican basketball players are always conspicuous when they go abroad--not only are they American, but some are over seven feet tall.
p514
sg7
(lp515
V18
p516
ag19
ag158
aV10
p517
ag34
ag17
asS'mnemonic_3'
p518
Vcan (con) speak(spicuous). or something which clearly speaks, i.e., which is obvious
p519
sS'mnemonic_2'
p520
Vthe constable's belly is noticable to the eye
p521
sS'mnemonic_1'
p522
VCon(can)+ s(see) + the + pic(picture) --> can see the clear picture of the situation. So conspicuous means which can be easily seen.
p523
sS'meaning_1'
p524
Vadjective: without any attempt at concealment; completely obvious
p525
ssVreticent
p526
(dp527
S'eg_1'
p528
VWhen asked about her father, Helen lost her outward enthusiasm and became rather reticent.
p529
sg7
(lp530
V42
p531
aV11
p532
aV23
p533
ag35
aV17
p534
ag34
asS'mnemonic_3'
p535
VREHTA+SHANT....shant rehne waal i.e a person who doesn't talk or who is reserved in speech....
p536
sS'mnemonic_2'
p537
V50Cent -> talks too much... on the contrary... reticent-> talk less
p538
sS'mnemonic_1'
p539
VCent (Saint) is stereotypically reluctant to speak or draw attention to themselves.
p540
sS'meaning_1'
p541
Vadjective: disinclined to talk, not revealing one's thoughts
p542
ssVmitigate
p543
(dp544
S'eg_1'
p545
VI can only spend so much time mitigating your disagreements with your wife, and at certain point, you need to do it on your own.
p546
sg7
(lp547
V35
p548
aV41
p549
aV35
p550
ag36
ag378
ag15
asS'eg_2'
p551
VIf it weren't for the mitigating circumstances, he would have certainly lost his job.
p552
sS'mnemonic_3'
p553
Vmitigate -> MIT + i + gate... when you reach the gates of MIT.. your tensions about PG admissions will be appeased/mitigated!!
p554
sS'mnemonic_2'
p555
Vthink of MITIGATE as COLGATE(toothpaste).Use of COLGATE lessen or try to lessen the extent of germs in our teeth. Use of MITIGATE will also lessen or try lessen the extent of [depends on your usage :)}]
p556
sS'mnemonic_1'
p557
VMitigate > "Gate pe kutte ki potty pe mitti daal do" why? so that the intensity of bad odour will lessen.
p558
sS'meaning_1'
p559
Vverb: make less severe or harsh
p560
sS'meaning_2'
p561
Vverb: lessen the severity of an offense
p562
ssVcryptic
p563
(dp564
S'eg_1'
p565
VSince Sarah did not want her husband to guess the Christmas present she had bought him, she only answered cryptically when he would ask her questions about it.
p566
sg7
(lp567
V12
p568
ag19
ag15
ag158
ag19
ag17
asS'mnemonic_3'
p569
VenCRYPTIon is done to keep up the secret and it is always confusing.....
p570
sS'mnemonic_2'
p571
Vcrypt+ic..crypt..sounds very close to word corrupt...and corrupted leaders always keep thier SECRETS hidden.
p572
sS'mnemonic_1'
p573
VCrypt means Secret . . . So Cryptic means something secret . . .Puzzle
p574
sS'meaning_1'
p575
Vadjective: mysterious or vague, usually intentionally
p576
ssVincisive
p577
(dp578
S'eg_1'
p579
VThe lawyer had an incisive mind, able in a flash to dissect a hopelessly tangled issue and isolate the essential laws at play.
p580
sg7
(lp581
V30
p582
ag15
ag34
ag17
ag19
ag19
asS'mnemonic_3'
p583
Vincisive---incisor...cisor which is used to cut something is sharp :)
p584
sS'mnemonic_2'
p585
VIncisive-> It has come from Incision  cutting, esp. by a surgeon. Also , Incision sounds similar to scissor (which are your four sharp teeth) used for cutting.
p586
sS'mnemonic_1'
p587
Vincisive can be correlated with our incisor teeth. which is very sharp both in human and animal, and they use it to cut food thus. incisive= incisor= cutting
p588
sS'meaning_1'
p589
Vadjective: having or demonstrating ability to recognize or draw fine distinctions
p590
ssVchortle
p591
(dp592
S'eg_1'
p593
VWalking into the cafe, I could hear happy, chortling people and smell the rich aroma of roasted coffee beans.
p594
sg7
(lp595
V29
p596
aV19
p597
aV11
p598
ag158
ag158
ag378
asS'mnemonic_3'
p599
VImagine giving a chart to a cartoonist in a gathering. He would definitely draw something funny and leave audience chuckling
p600
sS'mnemonic_2'
p601
Vchortle - ch + turtle, when turtle won the race with hare , i chuckled with delight
p602
sS'mnemonic_1'
p603
VCHORi TAL gayi because due to our laughter chor knew that we are in room.
p604
sS'meaning_1'
p605
Vverb: to chuckle, laugh merrily, often in a breathy, muffled way
p606
ssVbucolic
p607
(dp608
S'eg_1'
p609
VThe noble families of England once owned vast expanses of beautiful, bucolic land.
p610
sg7
(lp611
V54
p612
ag158
ag378
ag19
ag18
aV18
p613
asS'mnemonic_3'
p614
Volic is the one to see. oleic acid is used to remove rust.. or even if you can check oli, jumble it as oil,used as an antirust agent,which in the past was used as an oral agent.
p615
sS'mnemonic_2'
p616
VBUlls and COLI (collie, a sheep dog) Country -- rustic and pastoral places, people, and songs.
p617
sS'mnemonic_1'
p618
Vbucolic sounds a bit like bullock which is used in the "country side"...
p619
sS'meaning_1'
p620
Vadjective: relating to the pleasant aspects of the country
p621
ssVmeticulous
p622
(dp623
S'eg_1'
p624
VThe Japanese noodle maker was meticulous in making his noodles and would never let another person take over the task.
p625
sg7
(lp626
V24
p627
ag18
ag37
ag17
ag18
aV22
p628
asS'mnemonic_3'
p629
VMeti means fear..every one knows "where ever fear is there ,care should be there" otherwise we fall in risks...
p630
sS'mnemonic_2'
p631
VMeticulous:Met(Meet)+ICU(hospitals intensive care unit),so whenever u met any person in ICU u need to be very/extremely careful about his health,......etc
p632
sS'mnemonic_1'
p633
Vit sounds like matriculation(admission to a college).To  get matriculation we  should be as a meticulous(careful) aspirant to clear the exam.
p634
sS'meaning_1'
p635
Vadjective: marked by extreme care in treatment of details
p636
ssVculminate
p637
(dp638
S'eg_1'
p639
VBeethoven's musical genius culminated in the 9th Symphony, which many consider his greatest work.
p640
sg7
(lp641
g18
ag158
ag158
ag15
ag19
ag17
asS'mnemonic_3'
p642
VThe journey ended in a CULdesack where the MEN ATE lunch
p643
sS'mnemonic_2'
p644
Vculminate = break up like this.. cal(cul) min ate.. i'm having by food it is almost over or almost at climax .. i will call you in minute
p645
sS'mnemonic_1'
p646
Vculminate  = break up cal min ate.. my dinner is almost climax.. i will call you in minute..
p647
sS'meaning_1'
p648
Vverb: reach the highest or most decisive point
p649
ssVpreclude
p650
(dp651
S'eg_1'
p652
VThe manager specified that all other gates be locked, to preclude the possibility of persons without tickets entering the arena undetected.
p653
sg7
(lp654
V38
p655
ag158
aV14
p656
ag15
ag15
ag34
asS'mnemonic_3'
p657
Vprevent to conclude
p658
sS'mnemonic_2'
p659
Vpre+(con)clude ->pahle hi conclude karke eliminate karna or prevent karna.
p660
sS'mnemonic_1'
p661
VPRECLUDE is to EXCLUDE or keep out, whereas INCLUDE which is its opposite means to take in as part of a group.
p662
sS'meaning_1'
p663
Vverb: keep from happening or arising; make impossible
p664
ssVdidactic
p665
(dp666
S'eg_1'
p667
VTolstoy's The Death of Ivan Illyich is a didactic novel, instructing the reader on how to live a good life.
p668
sg7
(lp669
V77
p670
ag15
aV17
p671
aV14
p672
ag37
ag37
asS'mnemonic_3'
p673
Vdid + tactic or someone teach tactic
p674
sS'mnemonic_2'
p675
Vdiactic=did+act. You do an act to teach something,as in a moral. thus didactic=teach
p676
sS'mnemonic_1'
p677
Vdidi always acts in a way she is teaching something...''didi-act'ic
p678
sS'meaning_1'
p679
Vadjective: instructive (especially excessively)
p680
ssVapathetic
p681
(dp682
S'eg_1'
p683
VMr. Thompson was so talented at teaching math that even normally apathetic students took interest.
p684
sg7
(lp685
g36
ag19
ag158
ag17
ag17
ag17
asS'mnemonic_3'
p686
Vthere will be some roads(path) by seeing, we lack interest going that way
p687
sS'mnemonic_2'
p688
Vapathetic: A Past Ethic(a moral principle)which are uninterested to today's generations
p689
sS'mnemonic_1'
p690
VApathetic is a pathetic cosmetic. when applied on face , ur face will be widout emotions and widout interest.
p691
sS'meaning_1'
p692
Vadjective: marked by a lack of interest
p693
ssVeschew
p694
(dp695
S'eg_1'
p696
VPoliticians are the masters of eschewing morals; academics are the masters of eschewing clarity.
p697
sg7
(lp698
V83
p699
ag34
aV24
p700
ag35
ag378
ag19
asS'mnemonic_3'
p701
VEScape from CHEWing tobacco.
p702
sS'mnemonic_2'
p703
Vppl tend to avoid u..when u have severe cold and u say.."AAAh chuu!!"
p704
sS'mnemonic_1'
p705
Ves+CHEW... CHEWING a CHEWINGGUM IS A BAD HABIT while working in an office, so you must avoid this HABIT.
p706
sS'meaning_1'
p707
Vverb: avoid and stay away from deliberately; stay clear of
p708
ssVpredilection
p709
(dp710
S'eg_1'
p711
VMonte had a predilection for the fine things in life: Cuban cigars, 200 dollar bottles of wine, and trips to the French Riviera.
p712
sg7
(lp713
V59
p714
ag19
aV24
p715
ag34
aV11
p716
ag36
asS'mnemonic_3'
p717
Vpre+di+election...predetermining the result of election btw 2 parties..tat is da result will b PARTIAl
p718
sS'mnemonic_2'
p719
VYou come to a split in the road and must choose --->PREFERRED DIRECTION
p720
sS'mnemonic_1'
p721
Vpre(before)+dialect(local language); you generally become partial when you are taking an interview and you meet someone who speaks your language ( :) assume the interview is in the US)
p722
sS'meaning_1'
p723
Vnoun: a strong liking
p724
ssVobscure
p725
(dp726
S'eg_1'
p727
VOn the Smith's drive through the Grand Canyon, Mr. Smith's big head obscured much of Mrs. Robinson's view, so that she only saw momentary patches of red rock.
p728
sg7
(lp729
V11
p730
ag15
ag378
aV11
p731
ag158
aV26
p732
asS'eg_2'
p733
VMany of the biggest movie stars were once obscure actors who got only bit roles in long forgotten films.
p734
sS'mnemonic_3'
p735
Vobs sounds like boobs -in the movie cure  boobs are shown in a hazy manner not clear
p736
sS'mnemonic_2'
p737
Vobscure = not secure
p738
sS'mnemonic_1'
p739
VOBSCURE= OBSession + CURE == Many psychiatrists believe that Obsession's cure is still UNKNOWN / UNCLEAR...
p740
sS'note'
p741
VThis word has other definitions, but these are the most important ones to study
p742
sS'meaning_1'
p743
Vverb: make unclear
p744
sS'meaning_2'
p745
Vadjective: known by only a few
p746
ssVMagoosh Blog
p747
(dp748
S'meaning_1'
p749
Vnoun: A place to find valuable information including study schedules and GRE tips. Learn more at http://magoosh.com/gre
p750
sS'eg_1'
p751
VLena used the 1 month study schedule on the Magoosh blog to score well on the GRE.
p752
sg7
(lp753
ssVaesthetic
p754
(dp755
S'eg_1'
p756
VThe director, not known for his aesthetic sensibilities, decided not to use costumes at all, and put on the play in everyday clothing.
p757
sg7
(lp758
V33
p759
ag18
aV22
p760
aV17
p761
ag19
ag37
asS'eg_2'
p762
VThe artist operated according to a peculiar aesthetic, not considering any photograph to be worth publishing unless it contained a marine mammal.
p763
sS'mnemonic_3'
p764
VSounds like "anesthesia," which makes you loopy, thinking everything around you is beautiful...
p765
sS'mnemonic_2'
p766
Vaes sounds like ash-aishvarya.so,everyone appreciates the beauty of aishvarya.
p767
sS'mnemonic_1'
p768
Vaes + thetic. opposite of "pathetic"..means beauty
p769
sS'meaning_1'
p770
Vadjective: concerned with the appreciation of beauty
p771
sS'meaning_2'
p772
Vnoun: a set of principles underlying and guiding the work of a particular artist or artistic movement.
p773
ss.